; ModuleID = 'distribute_parallel_for_ast_print.cpp'
source_filename = "distribute_parallel_for_ast_print.cpp"
target datalayout = "e-m:e-p270:32:32-p271:32:32-p272:64:64-i64:64-f80:128-n8:16:32:64-S128"
target triple = "x86_64-pc-linux-gnu"

$_Z5tmainIiLi5EET_S0_ = comdat any

$_Z5tmainIcLi1EET_S0_ = comdat any

$_ZZ5tmainIiLi5EET_S0_E1a = comdat any

$_ZZ5tmainIiLi5EET_S0_E1g = comdat any

$_ZZ5tmainIcLi1EET_S0_E1a = comdat any

$_ZZ5tmainIcLi1EET_S0_E1g = comdat any

@_ZZ4mainE1a = internal global i32 0, align 4, !dbg !0
@_ZZ4mainE1g = internal global float 0.000000e+00, align 4, !dbg !13
@.str = private unnamed_addr constant [119 x i8] c"#pragma omp distribute parallel for schedule(guided, argc) default(none) copyin(g) dist_schedule(static, a) private(a)\00", align 1
@.str.1 = private unnamed_addr constant [215 x i8] c"#pragma omp distribute parallel for private(argc, b), firstprivate(argv, c), lastprivate(d, f) collapse(2) schedule(auto) if (argc) num_threads(a) default(shared) shared(e) reduction(+ : h) dist_schedule(static, b)\00", align 1
@_ZZ5tmainIiLi5EET_S0_E1a = linkonce_odr dso_local global i32 0, comdat, align 4, !dbg !16
@_ZZ5tmainIiLi5EET_S0_E1g = linkonce_odr dso_local global i32 0, comdat, align 4, !dbg !24
@.str.2 = private unnamed_addr constant [119 x i8] c"#pragma omp distribute parallel for dist_schedule(static, a) schedule(dynamic) default(none) copyin(g) firstprivate(a)\00", align 1
@.str.3 = private unnamed_addr constant [226 x i8] c"#pragma omp distribute parallel for private(argc, b), firstprivate(c, d), lastprivate(d, f) collapse(n) schedule(static, n) if (parallel :argc) num_threads(n) default(shared) shared(e) reduction(+ : h) dist_schedule(static,n)\00", align 1
@_ZZ5tmainIcLi1EET_S0_E1a = linkonce_odr dso_local global i8 0, comdat, align 1, !dbg !26
@_ZZ5tmainIcLi1EET_S0_E1g = linkonce_odr dso_local global i8 0, comdat, align 1, !dbg !34

; Function Attrs: noinline norecurse optnone uwtable
define dso_local i32 @main(i32 %0, i8** %1) #0 !dbg !2 {
  %3 = alloca i32, align 4
  %4 = alloca i32, align 4
  %5 = alloca i8**, align 8
  %6 = alloca i32, align 4
  %7 = alloca i32, align 4
  %8 = alloca i32, align 4
  %9 = alloca i32, align 4
  %10 = alloca i32, align 4
  %11 = alloca i32, align 4
  %12 = alloca i32, align 4
  %13 = alloca i32, align 4
  %14 = alloca i32, align 4
  store i32 0, i32* %3, align 4
  store i32 %0, i32* %4, align 4
  call void @llvm.dbg.declare(metadata i32* %4, metadata !40, metadata !DIExpression()), !dbg !41
  store i8** %1, i8*** %5, align 8
  call void @llvm.dbg.declare(metadata i8*** %5, metadata !42, metadata !DIExpression()), !dbg !43
  call void @llvm.dbg.declare(metadata i32* %6, metadata !44, metadata !DIExpression()), !dbg !45
  %15 = load i32, i32* %4, align 4, !dbg !46
  store i32 %15, i32* %6, align 4, !dbg !45
  call void @llvm.dbg.declare(metadata i32* %7, metadata !47, metadata !DIExpression()), !dbg !48
  call void @llvm.dbg.declare(metadata i32* %8, metadata !49, metadata !DIExpression()), !dbg !50
  call void @llvm.dbg.declare(metadata i32* %9, metadata !51, metadata !DIExpression()), !dbg !52
  call void @llvm.dbg.declare(metadata i32* %10, metadata !53, metadata !DIExpression()), !dbg !54
  call void @llvm.dbg.declare(metadata i32* %11, metadata !55, metadata !DIExpression()), !dbg !56
  call void @_Z25omp_for_pragma_talkad7420Pc(i8* getelementptr inbounds ([119 x i8], [119 x i8]* @.str, i64 0, i64 0)), !dbg !57
  call void @_Z19for_loop_talkad7420v(), !dbg !58
  call void @llvm.dbg.declare(metadata i32* %12, metadata !59, metadata !DIExpression()), !dbg !61
  store i32 0, i32* %12, align 4, !dbg !61
  br label %16, !dbg !62

16:                                               ; preds = %20, %2
  %17 = load i32, i32* %12, align 4, !dbg !63
  %18 = icmp slt i32 %17, 2, !dbg !65
  br i1 %18, label %19, label %23, !dbg !66

19:                                               ; preds = %16
  store i32 2, i32* @_ZZ4mainE1a, align 4, !dbg !67
  br label %20, !dbg !69

20:                                               ; preds = %19
  %21 = load i32, i32* %12, align 4, !dbg !70
  %22 = add nsw i32 %21, 1, !dbg !70
  store i32 %22, i32* %12, align 4, !dbg !70
  br label %16, !dbg !71, !llvm.loop !72

23:                                               ; preds = %16
  call void @_Z25omp_for_pragma_talkad7420Pc(i8* getelementptr inbounds ([215 x i8], [215 x i8]* @.str.1, i64 0, i64 0)), !dbg !74
  call void @_Z19for_loop_talkad7420v(), !dbg !75
  call void @llvm.dbg.declare(metadata i32* %13, metadata !76, metadata !DIExpression()), !dbg !78
  store i32 0, i32* %13, align 4, !dbg !78
  br label %24, !dbg !79

24:                                               ; preds = %38, %23
  %25 = load i32, i32* %13, align 4, !dbg !80
  %26 = icmp slt i32 %25, 10, !dbg !82
  br i1 %26, label %27, label %41, !dbg !83

27:                                               ; preds = %24
  call void @_Z19for_loop_talkad7420v(), !dbg !84
  call void @llvm.dbg.declare(metadata i32* %14, metadata !86, metadata !DIExpression()), !dbg !88
  store i32 0, i32* %14, align 4, !dbg !88
  br label %28, !dbg !89

28:                                               ; preds = %34, %27
  %29 = load i32, i32* %14, align 4, !dbg !90
  %30 = icmp slt i32 %29, 10, !dbg !92
  br i1 %30, label %31, label %37, !dbg !93

31:                                               ; preds = %28
  %32 = load i32, i32* @_ZZ4mainE1a, align 4, !dbg !94
  %33 = add nsw i32 %32, 1, !dbg !94
  store i32 %33, i32* @_ZZ4mainE1a, align 4, !dbg !94
  br label %34, !dbg !96

34:                                               ; preds = %31
  %35 = load i32, i32* %14, align 4, !dbg !97
  %36 = add nsw i32 %35, 1, !dbg !97
  store i32 %36, i32* %14, align 4, !dbg !97
  br label %28, !dbg !98, !llvm.loop !99

37:                                               ; preds = %28
  br label %38, !dbg !101

38:                                               ; preds = %37
  %39 = load i32, i32* %13, align 4, !dbg !102
  %40 = add nsw i32 %39, 1, !dbg !102
  store i32 %40, i32* %13, align 4, !dbg !102
  br label %24, !dbg !103, !llvm.loop !104

41:                                               ; preds = %24
  %42 = load i32, i32* %4, align 4, !dbg !106
  %43 = call i32 @_Z5tmainIiLi5EET_S0_(i32 %42), !dbg !107
  %44 = load i8**, i8*** %5, align 8, !dbg !108
  %45 = getelementptr inbounds i8*, i8** %44, i64 0, !dbg !108
  %46 = load i8*, i8** %45, align 8, !dbg !108
  %47 = getelementptr inbounds i8, i8* %46, i64 0, !dbg !108
  %48 = load i8, i8* %47, align 1, !dbg !108
  %49 = call signext i8 @_Z5tmainIcLi1EET_S0_(i8 signext %48), !dbg !109
  %50 = sext i8 %49 to i32, !dbg !109
  %51 = add nsw i32 %43, %50, !dbg !110
  ret i32 %51, !dbg !111
}

; Function Attrs: nounwind readnone speculatable willreturn
declare void @llvm.dbg.declare(metadata, metadata, metadata) #1

declare dso_local void @_Z25omp_for_pragma_talkad7420Pc(i8*) #2

declare dso_local void @_Z19for_loop_talkad7420v() #2

; Function Attrs: noinline optnone uwtable
define linkonce_odr dso_local i32 @_Z5tmainIiLi5EET_S0_(i32 %0) #3 comdat !dbg !18 {
  %2 = alloca i32, align 4
  %3 = alloca i32, align 4
  %4 = alloca i32, align 4
  %5 = alloca i32, align 4
  %6 = alloca i32, align 4
  %7 = alloca i32, align 4
  %8 = alloca i32, align 4
  %9 = alloca i32, align 4
  %10 = alloca i32, align 4
  %11 = alloca i32, align 4
  %12 = alloca i32, align 4
  %13 = alloca i32, align 4
  %14 = alloca i32, align 4
  %15 = alloca i32, align 4
  %16 = alloca i32, align 4
  %17 = alloca i32, align 4
  %18 = alloca i32, align 4
  %19 = alloca i32, align 4
  store i32 %0, i32* %2, align 4
  call void @llvm.dbg.declare(metadata i32* %2, metadata !112, metadata !DIExpression()), !dbg !113
  call void @llvm.dbg.declare(metadata i32* %3, metadata !114, metadata !DIExpression()), !dbg !115
  %20 = load i32, i32* %2, align 4, !dbg !116
  store i32 %20, i32* %3, align 4, !dbg !115
  call void @llvm.dbg.declare(metadata i32* %4, metadata !117, metadata !DIExpression()), !dbg !118
  call void @llvm.dbg.declare(metadata i32* %5, metadata !119, metadata !DIExpression()), !dbg !120
  call void @llvm.dbg.declare(metadata i32* %6, metadata !121, metadata !DIExpression()), !dbg !122
  call void @llvm.dbg.declare(metadata i32* %7, metadata !123, metadata !DIExpression()), !dbg !124
  call void @llvm.dbg.declare(metadata i32* %8, metadata !125, metadata !DIExpression()), !dbg !126
  call void @_Z25omp_for_pragma_talkad7420Pc(i8* getelementptr inbounds ([119 x i8], [119 x i8]* @.str.2, i64 0, i64 0)), !dbg !127
  call void @_Z19for_loop_talkad7420v(), !dbg !128
  call void @llvm.dbg.declare(metadata i32* %9, metadata !129, metadata !DIExpression()), !dbg !131
  store i32 0, i32* %9, align 4, !dbg !131
  br label %21, !dbg !132

21:                                               ; preds = %25, %1
  %22 = load i32, i32* %9, align 4, !dbg !133
  %23 = icmp slt i32 %22, 2, !dbg !135
  br i1 %23, label %24, label %28, !dbg !136

24:                                               ; preds = %21
  store i32 2, i32* @_ZZ5tmainIiLi5EET_S0_E1a, align 4, !dbg !137
  br label %25, !dbg !139

25:                                               ; preds = %24
  %26 = load i32, i32* %9, align 4, !dbg !140
  %27 = add nsw i32 %26, 1, !dbg !140
  store i32 %27, i32* %9, align 4, !dbg !140
  br label %21, !dbg !141, !llvm.loop !142

28:                                               ; preds = %21
  call void @_Z25omp_for_pragma_talkad7420Pc(i8* getelementptr inbounds ([226 x i8], [226 x i8]* @.str.3, i64 0, i64 0)), !dbg !144
  call void @_Z19for_loop_talkad7420v(), !dbg !145
  call void @llvm.dbg.declare(metadata i32* %10, metadata !146, metadata !DIExpression()), !dbg !148
  store i32 0, i32* %10, align 4, !dbg !148
  br label %29, !dbg !149

29:                                               ; preds = %107, %28
  %30 = load i32, i32* %10, align 4, !dbg !150
  %31 = icmp slt i32 %30, 2, !dbg !152
  br i1 %31, label %32, label %110, !dbg !153

32:                                               ; preds = %29
  call void @_Z19for_loop_talkad7420v(), !dbg !154
  call void @llvm.dbg.declare(metadata i32* %11, metadata !156, metadata !DIExpression()), !dbg !158
  store i32 0, i32* %11, align 4, !dbg !158
  br label %33, !dbg !159

33:                                               ; preds = %103, %32
  %34 = load i32, i32* %11, align 4, !dbg !160
  %35 = icmp slt i32 %34, 2, !dbg !162
  br i1 %35, label %36, label %106, !dbg !163

36:                                               ; preds = %33
  call void @_Z19for_loop_talkad7420v(), !dbg !164
  call void @llvm.dbg.declare(metadata i32* %12, metadata !166, metadata !DIExpression()), !dbg !168
  store i32 0, i32* %12, align 4, !dbg !168
  br label %37, !dbg !169

37:                                               ; preds = %99, %36
  %38 = load i32, i32* %12, align 4, !dbg !170
  %39 = icmp slt i32 %38, 2, !dbg !172
  br i1 %39, label %40, label %102, !dbg !173

40:                                               ; preds = %37
  call void @_Z19for_loop_talkad7420v(), !dbg !174
  call void @llvm.dbg.declare(metadata i32* %13, metadata !176, metadata !DIExpression()), !dbg !178
  store i32 0, i32* %13, align 4, !dbg !178
  br label %41, !dbg !179

41:                                               ; preds = %95, %40
  %42 = load i32, i32* %13, align 4, !dbg !180
  %43 = icmp slt i32 %42, 2, !dbg !182
  br i1 %43, label %44, label %98, !dbg !183

44:                                               ; preds = %41
  call void @_Z19for_loop_talkad7420v(), !dbg !184
  call void @llvm.dbg.declare(metadata i32* %14, metadata !186, metadata !DIExpression()), !dbg !188
  store i32 0, i32* %14, align 4, !dbg !188
  br label %45, !dbg !189

45:                                               ; preds = %91, %44
  %46 = load i32, i32* %14, align 4, !dbg !190
  %47 = icmp slt i32 %46, 2, !dbg !192
  br i1 %47, label %48, label %94, !dbg !193

48:                                               ; preds = %45
  call void @_Z19for_loop_talkad7420v(), !dbg !194
  call void @llvm.dbg.declare(metadata i32* %15, metadata !196, metadata !DIExpression()), !dbg !198
  store i32 0, i32* %15, align 4, !dbg !198
  br label %49, !dbg !199

49:                                               ; preds = %87, %48
  %50 = load i32, i32* %15, align 4, !dbg !200
  %51 = icmp slt i32 %50, 2, !dbg !202
  br i1 %51, label %52, label %90, !dbg !203

52:                                               ; preds = %49
  call void @_Z19for_loop_talkad7420v(), !dbg !204
  call void @llvm.dbg.declare(metadata i32* %16, metadata !206, metadata !DIExpression()), !dbg !208
  store i32 0, i32* %16, align 4, !dbg !208
  br label %53, !dbg !209

53:                                               ; preds = %83, %52
  %54 = load i32, i32* %16, align 4, !dbg !210
  %55 = icmp slt i32 %54, 2, !dbg !212
  br i1 %55, label %56, label %86, !dbg !213

56:                                               ; preds = %53
  call void @_Z19for_loop_talkad7420v(), !dbg !214
  call void @llvm.dbg.declare(metadata i32* %17, metadata !216, metadata !DIExpression()), !dbg !218
  store i32 0, i32* %17, align 4, !dbg !218
  br label %57, !dbg !219

57:                                               ; preds = %79, %56
  %58 = load i32, i32* %17, align 4, !dbg !220
  %59 = icmp slt i32 %58, 2, !dbg !222
  br i1 %59, label %60, label %82, !dbg !223

60:                                               ; preds = %57
  call void @_Z19for_loop_talkad7420v(), !dbg !224
  call void @llvm.dbg.declare(metadata i32* %18, metadata !226, metadata !DIExpression()), !dbg !228
  store i32 0, i32* %18, align 4, !dbg !228
  br label %61, !dbg !229

61:                                               ; preds = %75, %60
  %62 = load i32, i32* %18, align 4, !dbg !230
  %63 = icmp slt i32 %62, 2, !dbg !232
  br i1 %63, label %64, label %78, !dbg !233

64:                                               ; preds = %61
  call void @_Z19for_loop_talkad7420v(), !dbg !234
  call void @llvm.dbg.declare(metadata i32* %19, metadata !236, metadata !DIExpression()), !dbg !238
  store i32 0, i32* %19, align 4, !dbg !238
  br label %65, !dbg !239

65:                                               ; preds = %71, %64
  %66 = load i32, i32* %19, align 4, !dbg !240
  %67 = icmp slt i32 %66, 2, !dbg !242
  br i1 %67, label %68, label %74, !dbg !243

68:                                               ; preds = %65
  %69 = load i32, i32* @_ZZ5tmainIiLi5EET_S0_E1a, align 4, !dbg !244
  %70 = add nsw i32 %69, 1, !dbg !244
  store i32 %70, i32* @_ZZ5tmainIiLi5EET_S0_E1a, align 4, !dbg !244
  br label %71, !dbg !246

71:                                               ; preds = %68
  %72 = load i32, i32* %19, align 4, !dbg !247
  %73 = add nsw i32 %72, 1, !dbg !247
  store i32 %73, i32* %19, align 4, !dbg !247
  br label %65, !dbg !248, !llvm.loop !249

74:                                               ; preds = %65
  br label %75, !dbg !251

75:                                               ; preds = %74
  %76 = load i32, i32* %18, align 4, !dbg !252
  %77 = add nsw i32 %76, 1, !dbg !252
  store i32 %77, i32* %18, align 4, !dbg !252
  br label %61, !dbg !253, !llvm.loop !254

78:                                               ; preds = %61
  br label %79, !dbg !256

79:                                               ; preds = %78
  %80 = load i32, i32* %17, align 4, !dbg !257
  %81 = add nsw i32 %80, 1, !dbg !257
  store i32 %81, i32* %17, align 4, !dbg !257
  br label %57, !dbg !258, !llvm.loop !259

82:                                               ; preds = %57
  br label %83, !dbg !261

83:                                               ; preds = %82
  %84 = load i32, i32* %16, align 4, !dbg !262
  %85 = add nsw i32 %84, 1, !dbg !262
  store i32 %85, i32* %16, align 4, !dbg !262
  br label %53, !dbg !263, !llvm.loop !264

86:                                               ; preds = %53
  br label %87, !dbg !266

87:                                               ; preds = %86
  %88 = load i32, i32* %15, align 4, !dbg !267
  %89 = add nsw i32 %88, 1, !dbg !267
  store i32 %89, i32* %15, align 4, !dbg !267
  br label %49, !dbg !268, !llvm.loop !269

90:                                               ; preds = %49
  br label %91, !dbg !271

91:                                               ; preds = %90
  %92 = load i32, i32* %14, align 4, !dbg !272
  %93 = add nsw i32 %92, 1, !dbg !272
  store i32 %93, i32* %14, align 4, !dbg !272
  br label %45, !dbg !273, !llvm.loop !274

94:                                               ; preds = %45
  br label %95, !dbg !276

95:                                               ; preds = %94
  %96 = load i32, i32* %13, align 4, !dbg !277
  %97 = add nsw i32 %96, 1, !dbg !277
  store i32 %97, i32* %13, align 4, !dbg !277
  br label %41, !dbg !278, !llvm.loop !279

98:                                               ; preds = %41
  br label %99, !dbg !281

99:                                               ; preds = %98
  %100 = load i32, i32* %12, align 4, !dbg !282
  %101 = add nsw i32 %100, 1, !dbg !282
  store i32 %101, i32* %12, align 4, !dbg !282
  br label %37, !dbg !283, !llvm.loop !284

102:                                              ; preds = %37
  br label %103, !dbg !286

103:                                              ; preds = %102
  %104 = load i32, i32* %11, align 4, !dbg !287
  %105 = add nsw i32 %104, 1, !dbg !287
  store i32 %105, i32* %11, align 4, !dbg !287
  br label %33, !dbg !288, !llvm.loop !289

106:                                              ; preds = %33
  br label %107, !dbg !291

107:                                              ; preds = %106
  %108 = load i32, i32* %10, align 4, !dbg !292
  %109 = add nsw i32 %108, 1, !dbg !292
  store i32 %109, i32* %10, align 4, !dbg !292
  br label %29, !dbg !293, !llvm.loop !294

110:                                              ; preds = %29
  ret i32 0, !dbg !296
}

; Function Attrs: noinline optnone uwtable
define linkonce_odr dso_local signext i8 @_Z5tmainIcLi1EET_S0_(i8 signext %0) #3 comdat !dbg !28 {
  %2 = alloca i8, align 1
  %3 = alloca i8, align 1
  %4 = alloca i8, align 1
  %5 = alloca i8, align 1
  %6 = alloca i8, align 1
  %7 = alloca i8, align 1
  %8 = alloca i8, align 1
  %9 = alloca i32, align 4
  %10 = alloca i32, align 4
  %11 = alloca i32, align 4
  %12 = alloca i32, align 4
  %13 = alloca i32, align 4
  %14 = alloca i32, align 4
  %15 = alloca i32, align 4
  %16 = alloca i32, align 4
  %17 = alloca i32, align 4
  %18 = alloca i32, align 4
  %19 = alloca i32, align 4
  store i8 %0, i8* %2, align 1
  call void @llvm.dbg.declare(metadata i8* %2, metadata !297, metadata !DIExpression()), !dbg !298
  call void @llvm.dbg.declare(metadata i8* %3, metadata !299, metadata !DIExpression()), !dbg !300
  %20 = load i8, i8* %2, align 1, !dbg !301
  store i8 %20, i8* %3, align 1, !dbg !300
  call void @llvm.dbg.declare(metadata i8* %4, metadata !302, metadata !DIExpression()), !dbg !303
  call void @llvm.dbg.declare(metadata i8* %5, metadata !304, metadata !DIExpression()), !dbg !305
  call void @llvm.dbg.declare(metadata i8* %6, metadata !306, metadata !DIExpression()), !dbg !307
  call void @llvm.dbg.declare(metadata i8* %7, metadata !308, metadata !DIExpression()), !dbg !309
  call void @llvm.dbg.declare(metadata i8* %8, metadata !310, metadata !DIExpression()), !dbg !311
  call void @_Z25omp_for_pragma_talkad7420Pc(i8* getelementptr inbounds ([119 x i8], [119 x i8]* @.str.2, i64 0, i64 0)), !dbg !312
  call void @_Z19for_loop_talkad7420v(), !dbg !313
  call void @llvm.dbg.declare(metadata i32* %9, metadata !314, metadata !DIExpression()), !dbg !316
  store i32 0, i32* %9, align 4, !dbg !316
  br label %21, !dbg !317

21:                                               ; preds = %25, %1
  %22 = load i32, i32* %9, align 4, !dbg !318
  %23 = icmp slt i32 %22, 2, !dbg !320
  br i1 %23, label %24, label %28, !dbg !321

24:                                               ; preds = %21
  store i8 2, i8* @_ZZ5tmainIcLi1EET_S0_E1a, align 1, !dbg !322
  br label %25, !dbg !324

25:                                               ; preds = %24
  %26 = load i32, i32* %9, align 4, !dbg !325
  %27 = add nsw i32 %26, 1, !dbg !325
  store i32 %27, i32* %9, align 4, !dbg !325
  br label %21, !dbg !326, !llvm.loop !327

28:                                               ; preds = %21
  call void @_Z25omp_for_pragma_talkad7420Pc(i8* getelementptr inbounds ([226 x i8], [226 x i8]* @.str.3, i64 0, i64 0)), !dbg !329
  call void @_Z19for_loop_talkad7420v(), !dbg !330
  call void @llvm.dbg.declare(metadata i32* %10, metadata !331, metadata !DIExpression()), !dbg !333
  store i32 0, i32* %10, align 4, !dbg !333
  br label %29, !dbg !334

29:                                               ; preds = %107, %28
  %30 = load i32, i32* %10, align 4, !dbg !335
  %31 = icmp slt i32 %30, 2, !dbg !337
  br i1 %31, label %32, label %110, !dbg !338

32:                                               ; preds = %29
  call void @_Z19for_loop_talkad7420v(), !dbg !339
  call void @llvm.dbg.declare(metadata i32* %11, metadata !341, metadata !DIExpression()), !dbg !343
  store i32 0, i32* %11, align 4, !dbg !343
  br label %33, !dbg !344

33:                                               ; preds = %103, %32
  %34 = load i32, i32* %11, align 4, !dbg !345
  %35 = icmp slt i32 %34, 2, !dbg !347
  br i1 %35, label %36, label %106, !dbg !348

36:                                               ; preds = %33
  call void @_Z19for_loop_talkad7420v(), !dbg !349
  call void @llvm.dbg.declare(metadata i32* %12, metadata !351, metadata !DIExpression()), !dbg !353
  store i32 0, i32* %12, align 4, !dbg !353
  br label %37, !dbg !354

37:                                               ; preds = %99, %36
  %38 = load i32, i32* %12, align 4, !dbg !355
  %39 = icmp slt i32 %38, 2, !dbg !357
  br i1 %39, label %40, label %102, !dbg !358

40:                                               ; preds = %37
  call void @_Z19for_loop_talkad7420v(), !dbg !359
  call void @llvm.dbg.declare(metadata i32* %13, metadata !361, metadata !DIExpression()), !dbg !363
  store i32 0, i32* %13, align 4, !dbg !363
  br label %41, !dbg !364

41:                                               ; preds = %95, %40
  %42 = load i32, i32* %13, align 4, !dbg !365
  %43 = icmp slt i32 %42, 2, !dbg !367
  br i1 %43, label %44, label %98, !dbg !368

44:                                               ; preds = %41
  call void @_Z19for_loop_talkad7420v(), !dbg !369
  call void @llvm.dbg.declare(metadata i32* %14, metadata !371, metadata !DIExpression()), !dbg !373
  store i32 0, i32* %14, align 4, !dbg !373
  br label %45, !dbg !374

45:                                               ; preds = %91, %44
  %46 = load i32, i32* %14, align 4, !dbg !375
  %47 = icmp slt i32 %46, 2, !dbg !377
  br i1 %47, label %48, label %94, !dbg !378

48:                                               ; preds = %45
  call void @_Z19for_loop_talkad7420v(), !dbg !379
  call void @llvm.dbg.declare(metadata i32* %15, metadata !381, metadata !DIExpression()), !dbg !383
  store i32 0, i32* %15, align 4, !dbg !383
  br label %49, !dbg !384

49:                                               ; preds = %87, %48
  %50 = load i32, i32* %15, align 4, !dbg !385
  %51 = icmp slt i32 %50, 2, !dbg !387
  br i1 %51, label %52, label %90, !dbg !388

52:                                               ; preds = %49
  call void @_Z19for_loop_talkad7420v(), !dbg !389
  call void @llvm.dbg.declare(metadata i32* %16, metadata !391, metadata !DIExpression()), !dbg !393
  store i32 0, i32* %16, align 4, !dbg !393
  br label %53, !dbg !394

53:                                               ; preds = %83, %52
  %54 = load i32, i32* %16, align 4, !dbg !395
  %55 = icmp slt i32 %54, 2, !dbg !397
  br i1 %55, label %56, label %86, !dbg !398

56:                                               ; preds = %53
  call void @_Z19for_loop_talkad7420v(), !dbg !399
  call void @llvm.dbg.declare(metadata i32* %17, metadata !401, metadata !DIExpression()), !dbg !403
  store i32 0, i32* %17, align 4, !dbg !403
  br label %57, !dbg !404

57:                                               ; preds = %79, %56
  %58 = load i32, i32* %17, align 4, !dbg !405
  %59 = icmp slt i32 %58, 2, !dbg !407
  br i1 %59, label %60, label %82, !dbg !408

60:                                               ; preds = %57
  call void @_Z19for_loop_talkad7420v(), !dbg !409
  call void @llvm.dbg.declare(metadata i32* %18, metadata !411, metadata !DIExpression()), !dbg !413
  store i32 0, i32* %18, align 4, !dbg !413
  br label %61, !dbg !414

61:                                               ; preds = %75, %60
  %62 = load i32, i32* %18, align 4, !dbg !415
  %63 = icmp slt i32 %62, 2, !dbg !417
  br i1 %63, label %64, label %78, !dbg !418

64:                                               ; preds = %61
  call void @_Z19for_loop_talkad7420v(), !dbg !419
  call void @llvm.dbg.declare(metadata i32* %19, metadata !421, metadata !DIExpression()), !dbg !423
  store i32 0, i32* %19, align 4, !dbg !423
  br label %65, !dbg !424

65:                                               ; preds = %71, %64
  %66 = load i32, i32* %19, align 4, !dbg !425
  %67 = icmp slt i32 %66, 2, !dbg !427
  br i1 %67, label %68, label %74, !dbg !428

68:                                               ; preds = %65
  %69 = load i8, i8* @_ZZ5tmainIcLi1EET_S0_E1a, align 1, !dbg !429
  %70 = add i8 %69, 1, !dbg !429
  store i8 %70, i8* @_ZZ5tmainIcLi1EET_S0_E1a, align 1, !dbg !429
  br label %71, !dbg !431

71:                                               ; preds = %68
  %72 = load i32, i32* %19, align 4, !dbg !432
  %73 = add nsw i32 %72, 1, !dbg !432
  store i32 %73, i32* %19, align 4, !dbg !432
  br label %65, !dbg !433, !llvm.loop !434

74:                                               ; preds = %65
  br label %75, !dbg !436

75:                                               ; preds = %74
  %76 = load i32, i32* %18, align 4, !dbg !437
  %77 = add nsw i32 %76, 1, !dbg !437
  store i32 %77, i32* %18, align 4, !dbg !437
  br label %61, !dbg !438, !llvm.loop !439

78:                                               ; preds = %61
  br label %79, !dbg !441

79:                                               ; preds = %78
  %80 = load i32, i32* %17, align 4, !dbg !442
  %81 = add nsw i32 %80, 1, !dbg !442
  store i32 %81, i32* %17, align 4, !dbg !442
  br label %57, !dbg !443, !llvm.loop !444

82:                                               ; preds = %57
  br label %83, !dbg !446

83:                                               ; preds = %82
  %84 = load i32, i32* %16, align 4, !dbg !447
  %85 = add nsw i32 %84, 1, !dbg !447
  store i32 %85, i32* %16, align 4, !dbg !447
  br label %53, !dbg !448, !llvm.loop !449

86:                                               ; preds = %53
  br label %87, !dbg !451

87:                                               ; preds = %86
  %88 = load i32, i32* %15, align 4, !dbg !452
  %89 = add nsw i32 %88, 1, !dbg !452
  store i32 %89, i32* %15, align 4, !dbg !452
  br label %49, !dbg !453, !llvm.loop !454

90:                                               ; preds = %49
  br label %91, !dbg !456

91:                                               ; preds = %90
  %92 = load i32, i32* %14, align 4, !dbg !457
  %93 = add nsw i32 %92, 1, !dbg !457
  store i32 %93, i32* %14, align 4, !dbg !457
  br label %45, !dbg !458, !llvm.loop !459

94:                                               ; preds = %45
  br label %95, !dbg !461

95:                                               ; preds = %94
  %96 = load i32, i32* %13, align 4, !dbg !462
  %97 = add nsw i32 %96, 1, !dbg !462
  store i32 %97, i32* %13, align 4, !dbg !462
  br label %41, !dbg !463, !llvm.loop !464

98:                                               ; preds = %41
  br label %99, !dbg !466

99:                                               ; preds = %98
  %100 = load i32, i32* %12, align 4, !dbg !467
  %101 = add nsw i32 %100, 1, !dbg !467
  store i32 %101, i32* %12, align 4, !dbg !467
  br label %37, !dbg !468, !llvm.loop !469

102:                                              ; preds = %37
  br label %103, !dbg !471

103:                                              ; preds = %102
  %104 = load i32, i32* %11, align 4, !dbg !472
  %105 = add nsw i32 %104, 1, !dbg !472
  store i32 %105, i32* %11, align 4, !dbg !472
  br label %33, !dbg !473, !llvm.loop !474

106:                                              ; preds = %33
  br label %107, !dbg !476

107:                                              ; preds = %106
  %108 = load i32, i32* %10, align 4, !dbg !477
  %109 = add nsw i32 %108, 1, !dbg !477
  store i32 %109, i32* %10, align 4, !dbg !477
  br label %29, !dbg !478, !llvm.loop !479

110:                                              ; preds = %29
  ret i8 0, !dbg !481
}

attributes #0 = { noinline norecurse optnone uwtable "correctly-rounded-divide-sqrt-fp-math"="false" "disable-tail-calls"="false" "frame-pointer"="all" "less-precise-fpmad"="false" "min-legal-vector-width"="0" "no-infs-fp-math"="false" "no-jump-tables"="false" "no-nans-fp-math"="false" "no-signed-zeros-fp-math"="false" "no-trapping-math"="false" "stack-protector-buffer-size"="8" "target-cpu"="x86-64" "target-features"="+cx8,+fxsr,+mmx,+sse,+sse2,+x87" "unsafe-fp-math"="false" "use-soft-float"="false" }
attributes #1 = { nounwind readnone speculatable willreturn }
attributes #2 = { "correctly-rounded-divide-sqrt-fp-math"="false" "disable-tail-calls"="false" "frame-pointer"="all" "less-precise-fpmad"="false" "no-infs-fp-math"="false" "no-nans-fp-math"="false" "no-signed-zeros-fp-math"="false" "no-trapping-math"="false" "stack-protector-buffer-size"="8" "target-cpu"="x86-64" "target-features"="+cx8,+fxsr,+mmx,+sse,+sse2,+x87" "unsafe-fp-math"="false" "use-soft-float"="false" }
attributes #3 = { noinline optnone uwtable "correctly-rounded-divide-sqrt-fp-math"="false" "disable-tail-calls"="false" "frame-pointer"="all" "less-precise-fpmad"="false" "min-legal-vector-width"="0" "no-infs-fp-math"="false" "no-jump-tables"="false" "no-nans-fp-math"="false" "no-signed-zeros-fp-math"="false" "no-trapping-math"="false" "stack-protector-buffer-size"="8" "target-cpu"="x86-64" "target-features"="+cx8,+fxsr,+mmx,+sse,+sse2,+x87" "unsafe-fp-math"="false" "use-soft-float"="false" }

!llvm.dbg.cu = !{!10}
!llvm.module.flags = !{!36, !37, !38}
!llvm.ident = !{!39}

!0 = !DIGlobalVariableExpression(var: !1, expr: !DIExpression())
!1 = distinct !DIGlobalVariable(name: "a", scope: !2, file: !3, line: 131, type: !6, isLocal: true, isDefinition: true)
!2 = distinct !DISubprogram(name: "main", scope: !3, file: !3, line: 129, type: !4, scopeLine: 129, flags: DIFlagPrototyped, spFlags: DISPFlagDefinition, unit: !10, retainedNodes: !11)
!3 = !DIFile(filename: "distribute_parallel_for_ast_print.cpp", directory: "/home/talkad/OpenMPdb/temp/DebasmitaBasu/custom-OpenMP-directives/clang/test/OpenMP")
!4 = !DISubroutineType(types: !5)
!5 = !{!6, !6, !7}
!6 = !DIBasicType(name: "int", size: 32, encoding: DW_ATE_signed)
!7 = !DIDerivedType(tag: DW_TAG_pointer_type, baseType: !8, size: 64)
!8 = !DIDerivedType(tag: DW_TAG_pointer_type, baseType: !9, size: 64)
!9 = !DIBasicType(name: "char", size: 8, encoding: DW_ATE_signed_char)
!10 = distinct !DICompileUnit(language: DW_LANG_C_plus_plus_14, file: !3, producer: "clang version 10.0.0-4ubuntu1 ", isOptimized: false, runtimeVersion: 0, emissionKind: FullDebug, enums: !11, globals: !12, splitDebugInlining: false, nameTableKind: None)
!11 = !{}
!12 = !{!0, !13, !16, !24, !26, !34}
!13 = !DIGlobalVariableExpression(var: !14, expr: !DIExpression())
!14 = distinct !DIGlobalVariable(name: "g", scope: !2, file: !3, line: 132, type: !15, isLocal: true, isDefinition: true)
!15 = !DIBasicType(name: "float", size: 32, encoding: DW_ATE_float)
!16 = !DIGlobalVariableExpression(var: !17, expr: !DIExpression())
!17 = distinct !DIGlobalVariable(name: "a", scope: !18, file: !3, line: 72, type: !6, isLocal: false, isDefinition: true)
!18 = distinct !DISubprogram(name: "tmain<int, 5>", linkageName: "_Z5tmainIiLi5EET_S0_", scope: !3, file: !3, line: 70, type: !19, scopeLine: 70, flags: DIFlagPrototyped, spFlags: DISPFlagDefinition, unit: !10, templateParams: !21, retainedNodes: !11)
!19 = !DISubroutineType(types: !20)
!20 = !{!6, !6}
!21 = !{!22, !23}
!22 = !DITemplateTypeParameter(name: "T", type: !6)
!23 = !DITemplateValueParameter(name: "N", type: !6, value: i32 5)
!24 = !DIGlobalVariableExpression(var: !25, expr: !DIExpression())
!25 = distinct !DIGlobalVariable(name: "g", scope: !18, file: !3, line: 73, type: !6, isLocal: false, isDefinition: true)
!26 = !DIGlobalVariableExpression(var: !27, expr: !DIExpression())
!27 = distinct !DIGlobalVariable(name: "a", scope: !28, file: !3, line: 72, type: !9, isLocal: false, isDefinition: true)
!28 = distinct !DISubprogram(name: "tmain<char, 1>", linkageName: "_Z5tmainIcLi1EET_S0_", scope: !3, file: !3, line: 70, type: !29, scopeLine: 70, flags: DIFlagPrototyped, spFlags: DISPFlagDefinition, unit: !10, templateParams: !31, retainedNodes: !11)
!29 = !DISubroutineType(types: !30)
!30 = !{!9, !9}
!31 = !{!32, !33}
!32 = !DITemplateTypeParameter(name: "T", type: !9)
!33 = !DITemplateValueParameter(name: "N", type: !6, value: i32 1)
!34 = !DIGlobalVariableExpression(var: !35, expr: !DIExpression())
!35 = distinct !DIGlobalVariable(name: "g", scope: !28, file: !3, line: 73, type: !9, isLocal: false, isDefinition: true)
!36 = !{i32 7, !"Dwarf Version", i32 4}
!37 = !{i32 2, !"Debug Info Version", i32 3}
!38 = !{i32 1, !"wchar_size", i32 4}
!39 = !{!"clang version 10.0.0-4ubuntu1 "}
!40 = !DILocalVariable(name: "argc", arg: 1, scope: !2, file: !3, line: 129, type: !6)
!41 = !DILocation(line: 129, column: 14, scope: !2)
!42 = !DILocalVariable(name: "argv", arg: 2, scope: !2, file: !3, line: 129, type: !7)
!43 = !DILocation(line: 129, column: 27, scope: !2)
!44 = !DILocalVariable(name: "b", scope: !2, file: !3, line: 130, type: !6)
!45 = !DILocation(line: 130, column: 7, scope: !2)
!46 = !DILocation(line: 130, column: 11, scope: !2)
!47 = !DILocalVariable(name: "c", scope: !2, file: !3, line: 130, type: !6)
!48 = !DILocation(line: 130, column: 17, scope: !2)
!49 = !DILocalVariable(name: "d", scope: !2, file: !3, line: 130, type: !6)
!50 = !DILocation(line: 130, column: 20, scope: !2)
!51 = !DILocalVariable(name: "e", scope: !2, file: !3, line: 130, type: !6)
!52 = !DILocation(line: 130, column: 23, scope: !2)
!53 = !DILocalVariable(name: "f", scope: !2, file: !3, line: 130, type: !6)
!54 = !DILocation(line: 130, column: 26, scope: !2)
!55 = !DILocalVariable(name: "h", scope: !2, file: !3, line: 130, type: !6)
!56 = !DILocation(line: 130, column: 29, scope: !2)
!57 = !DILocation(line: 136, column: 1, scope: !2)
!58 = !DILocation(line: 137, column: 1, scope: !2)
!59 = !DILocalVariable(name: "i", scope: !60, file: !3, line: 138, type: !6)
!60 = distinct !DILexicalBlock(scope: !2, file: !3, line: 138, column: 3)
!61 = !DILocation(line: 138, column: 12, scope: !60)
!62 = !DILocation(line: 138, column: 8, scope: !60)
!63 = !DILocation(line: 138, column: 19, scope: !64)
!64 = distinct !DILexicalBlock(scope: !60, file: !3, line: 138, column: 3)
!65 = !DILocation(line: 138, column: 21, scope: !64)
!66 = !DILocation(line: 138, column: 3, scope: !60)
!67 = !DILocation(line: 140, column: 7, scope: !68)
!68 = distinct !DILexicalBlock(scope: !64, file: !3, line: 139, column: 1)
!69 = !DILocation(line: 141, column: 1, scope: !68)
!70 = !DILocation(line: 138, column: 26, scope: !64)
!71 = !DILocation(line: 138, column: 3, scope: !64)
!72 = distinct !{!72, !66, !73}
!73 = !DILocation(line: 141, column: 1, scope: !60)
!74 = !DILocation(line: 144, column: 1, scope: !2)
!75 = !DILocation(line: 145, column: 1, scope: !2)
!76 = !DILocalVariable(name: "i", scope: !77, file: !3, line: 146, type: !6)
!77 = distinct !DILexicalBlock(scope: !2, file: !3, line: 146, column: 3)
!78 = !DILocation(line: 146, column: 12, scope: !77)
!79 = !DILocation(line: 146, column: 8, scope: !77)
!80 = !DILocation(line: 146, column: 19, scope: !81)
!81 = distinct !DILexicalBlock(scope: !77, file: !3, line: 146, column: 3)
!82 = !DILocation(line: 146, column: 21, scope: !81)
!83 = !DILocation(line: 146, column: 3, scope: !77)
!84 = !DILocation(line: 148, column: 1, scope: !85)
!85 = distinct !DILexicalBlock(scope: !81, file: !3, line: 147, column: 1)
!86 = !DILocalVariable(name: "j", scope: !87, file: !3, line: 149, type: !6)
!87 = distinct !DILexicalBlock(scope: !85, file: !3, line: 149, column: 5)
!88 = !DILocation(line: 149, column: 14, scope: !87)
!89 = !DILocation(line: 149, column: 10, scope: !87)
!90 = !DILocation(line: 149, column: 21, scope: !91)
!91 = distinct !DILexicalBlock(scope: !87, file: !3, line: 149, column: 5)
!92 = !DILocation(line: 149, column: 23, scope: !91)
!93 = !DILocation(line: 149, column: 5, scope: !87)
!94 = !DILocation(line: 151, column: 8, scope: !95)
!95 = distinct !DILexicalBlock(scope: !91, file: !3, line: 150, column: 1)
!96 = !DILocation(line: 152, column: 1, scope: !95)
!97 = !DILocation(line: 149, column: 29, scope: !91)
!98 = !DILocation(line: 149, column: 5, scope: !91)
!99 = distinct !{!99, !93, !100}
!100 = !DILocation(line: 152, column: 1, scope: !87)
!101 = !DILocation(line: 153, column: 1, scope: !85)
!102 = !DILocation(line: 146, column: 27, scope: !81)
!103 = !DILocation(line: 146, column: 3, scope: !81)
!104 = distinct !{!104, !83, !105}
!105 = !DILocation(line: 153, column: 1, scope: !77)
!106 = !DILocation(line: 154, column: 25, scope: !2)
!107 = !DILocation(line: 154, column: 11, scope: !2)
!108 = !DILocation(line: 154, column: 48, scope: !2)
!109 = !DILocation(line: 154, column: 33, scope: !2)
!110 = !DILocation(line: 154, column: 31, scope: !2)
!111 = !DILocation(line: 154, column: 3, scope: !2)
!112 = !DILocalVariable(name: "argc", arg: 1, scope: !18, file: !3, line: 70, type: !6)
!113 = !DILocation(line: 70, column: 11, scope: !18)
!114 = !DILocalVariable(name: "b", scope: !18, file: !3, line: 71, type: !6)
!115 = !DILocation(line: 71, column: 5, scope: !18)
!116 = !DILocation(line: 71, column: 9, scope: !18)
!117 = !DILocalVariable(name: "c", scope: !18, file: !3, line: 71, type: !6)
!118 = !DILocation(line: 71, column: 15, scope: !18)
!119 = !DILocalVariable(name: "d", scope: !18, file: !3, line: 71, type: !6)
!120 = !DILocation(line: 71, column: 18, scope: !18)
!121 = !DILocalVariable(name: "e", scope: !18, file: !3, line: 71, type: !6)
!122 = !DILocation(line: 71, column: 21, scope: !18)
!123 = !DILocalVariable(name: "f", scope: !18, file: !3, line: 71, type: !6)
!124 = !DILocation(line: 71, column: 24, scope: !18)
!125 = !DILocalVariable(name: "h", scope: !18, file: !3, line: 71, type: !6)
!126 = !DILocation(line: 71, column: 27, scope: !18)
!127 = !DILocation(line: 77, column: 1, scope: !18)
!128 = !DILocation(line: 78, column: 1, scope: !18)
!129 = !DILocalVariable(name: "i", scope: !130, file: !3, line: 79, type: !6)
!130 = distinct !DILexicalBlock(scope: !18, file: !3, line: 79, column: 3)
!131 = !DILocation(line: 79, column: 12, scope: !130)
!132 = !DILocation(line: 79, column: 8, scope: !130)
!133 = !DILocation(line: 79, column: 19, scope: !134)
!134 = distinct !DILexicalBlock(scope: !130, file: !3, line: 79, column: 3)
!135 = !DILocation(line: 79, column: 21, scope: !134)
!136 = !DILocation(line: 79, column: 3, scope: !130)
!137 = !DILocation(line: 81, column: 7, scope: !138)
!138 = distinct !DILexicalBlock(scope: !134, file: !3, line: 80, column: 1)
!139 = !DILocation(line: 82, column: 1, scope: !138)
!140 = !DILocation(line: 79, column: 26, scope: !134)
!141 = !DILocation(line: 79, column: 3, scope: !134)
!142 = distinct !{!142, !136, !143}
!143 = !DILocation(line: 82, column: 1, scope: !130)
!144 = !DILocation(line: 85, column: 1, scope: !18)
!145 = !DILocation(line: 86, column: 1, scope: !18)
!146 = !DILocalVariable(name: "i", scope: !147, file: !3, line: 87, type: !6)
!147 = distinct !DILexicalBlock(scope: !18, file: !3, line: 87, column: 3)
!148 = !DILocation(line: 87, column: 12, scope: !147)
!149 = !DILocation(line: 87, column: 8, scope: !147)
!150 = !DILocation(line: 87, column: 19, scope: !151)
!151 = distinct !DILexicalBlock(scope: !147, file: !3, line: 87, column: 3)
!152 = !DILocation(line: 87, column: 21, scope: !151)
!153 = !DILocation(line: 87, column: 3, scope: !147)
!154 = !DILocation(line: 89, column: 1, scope: !155)
!155 = distinct !DILexicalBlock(scope: !151, file: !3, line: 88, column: 1)
!156 = !DILocalVariable(name: "j", scope: !157, file: !3, line: 90, type: !6)
!157 = distinct !DILexicalBlock(scope: !155, file: !3, line: 90, column: 5)
!158 = !DILocation(line: 90, column: 14, scope: !157)
!159 = !DILocation(line: 90, column: 10, scope: !157)
!160 = !DILocation(line: 90, column: 21, scope: !161)
!161 = distinct !DILexicalBlock(scope: !157, file: !3, line: 90, column: 5)
!162 = !DILocation(line: 90, column: 23, scope: !161)
!163 = !DILocation(line: 90, column: 5, scope: !157)
!164 = !DILocation(line: 92, column: 1, scope: !165)
!165 = distinct !DILexicalBlock(scope: !161, file: !3, line: 91, column: 1)
!166 = !DILocalVariable(name: "j", scope: !167, file: !3, line: 93, type: !6)
!167 = distinct !DILexicalBlock(scope: !165, file: !3, line: 93, column: 7)
!168 = !DILocation(line: 93, column: 16, scope: !167)
!169 = !DILocation(line: 93, column: 12, scope: !167)
!170 = !DILocation(line: 93, column: 23, scope: !171)
!171 = distinct !DILexicalBlock(scope: !167, file: !3, line: 93, column: 7)
!172 = !DILocation(line: 93, column: 25, scope: !171)
!173 = !DILocation(line: 93, column: 7, scope: !167)
!174 = !DILocation(line: 95, column: 1, scope: !175)
!175 = distinct !DILexicalBlock(scope: !171, file: !3, line: 94, column: 1)
!176 = !DILocalVariable(name: "j", scope: !177, file: !3, line: 96, type: !6)
!177 = distinct !DILexicalBlock(scope: !175, file: !3, line: 96, column: 9)
!178 = !DILocation(line: 96, column: 18, scope: !177)
!179 = !DILocation(line: 96, column: 14, scope: !177)
!180 = !DILocation(line: 96, column: 25, scope: !181)
!181 = distinct !DILexicalBlock(scope: !177, file: !3, line: 96, column: 9)
!182 = !DILocation(line: 96, column: 27, scope: !181)
!183 = !DILocation(line: 96, column: 9, scope: !177)
!184 = !DILocation(line: 98, column: 1, scope: !185)
!185 = distinct !DILexicalBlock(scope: !181, file: !3, line: 97, column: 1)
!186 = !DILocalVariable(name: "j", scope: !187, file: !3, line: 99, type: !6)
!187 = distinct !DILexicalBlock(scope: !185, file: !3, line: 99, column: 11)
!188 = !DILocation(line: 99, column: 20, scope: !187)
!189 = !DILocation(line: 99, column: 16, scope: !187)
!190 = !DILocation(line: 99, column: 27, scope: !191)
!191 = distinct !DILexicalBlock(scope: !187, file: !3, line: 99, column: 11)
!192 = !DILocation(line: 99, column: 29, scope: !191)
!193 = !DILocation(line: 99, column: 11, scope: !187)
!194 = !DILocation(line: 101, column: 1, scope: !195)
!195 = distinct !DILexicalBlock(scope: !191, file: !3, line: 100, column: 1)
!196 = !DILocalVariable(name: "i", scope: !197, file: !3, line: 102, type: !6)
!197 = distinct !DILexicalBlock(scope: !195, file: !3, line: 102, column: 3)
!198 = !DILocation(line: 102, column: 12, scope: !197)
!199 = !DILocation(line: 102, column: 8, scope: !197)
!200 = !DILocation(line: 102, column: 19, scope: !201)
!201 = distinct !DILexicalBlock(scope: !197, file: !3, line: 102, column: 3)
!202 = !DILocation(line: 102, column: 21, scope: !201)
!203 = !DILocation(line: 102, column: 3, scope: !197)
!204 = !DILocation(line: 104, column: 1, scope: !205)
!205 = distinct !DILexicalBlock(scope: !201, file: !3, line: 103, column: 1)
!206 = !DILocalVariable(name: "j", scope: !207, file: !3, line: 105, type: !6)
!207 = distinct !DILexicalBlock(scope: !205, file: !3, line: 105, column: 5)
!208 = !DILocation(line: 105, column: 14, scope: !207)
!209 = !DILocation(line: 105, column: 10, scope: !207)
!210 = !DILocation(line: 105, column: 21, scope: !211)
!211 = distinct !DILexicalBlock(scope: !207, file: !3, line: 105, column: 5)
!212 = !DILocation(line: 105, column: 23, scope: !211)
!213 = !DILocation(line: 105, column: 5, scope: !207)
!214 = !DILocation(line: 107, column: 1, scope: !215)
!215 = distinct !DILexicalBlock(scope: !211, file: !3, line: 106, column: 1)
!216 = !DILocalVariable(name: "j", scope: !217, file: !3, line: 108, type: !6)
!217 = distinct !DILexicalBlock(scope: !215, file: !3, line: 108, column: 7)
!218 = !DILocation(line: 108, column: 16, scope: !217)
!219 = !DILocation(line: 108, column: 12, scope: !217)
!220 = !DILocation(line: 108, column: 23, scope: !221)
!221 = distinct !DILexicalBlock(scope: !217, file: !3, line: 108, column: 7)
!222 = !DILocation(line: 108, column: 25, scope: !221)
!223 = !DILocation(line: 108, column: 7, scope: !217)
!224 = !DILocation(line: 110, column: 1, scope: !225)
!225 = distinct !DILexicalBlock(scope: !221, file: !3, line: 109, column: 1)
!226 = !DILocalVariable(name: "j", scope: !227, file: !3, line: 111, type: !6)
!227 = distinct !DILexicalBlock(scope: !225, file: !3, line: 111, column: 9)
!228 = !DILocation(line: 111, column: 18, scope: !227)
!229 = !DILocation(line: 111, column: 14, scope: !227)
!230 = !DILocation(line: 111, column: 25, scope: !231)
!231 = distinct !DILexicalBlock(scope: !227, file: !3, line: 111, column: 9)
!232 = !DILocation(line: 111, column: 27, scope: !231)
!233 = !DILocation(line: 111, column: 9, scope: !227)
!234 = !DILocation(line: 113, column: 1, scope: !235)
!235 = distinct !DILexicalBlock(scope: !231, file: !3, line: 112, column: 1)
!236 = !DILocalVariable(name: "j", scope: !237, file: !3, line: 114, type: !6)
!237 = distinct !DILexicalBlock(scope: !235, file: !3, line: 114, column: 11)
!238 = !DILocation(line: 114, column: 20, scope: !237)
!239 = !DILocation(line: 114, column: 16, scope: !237)
!240 = !DILocation(line: 114, column: 27, scope: !241)
!241 = distinct !DILexicalBlock(scope: !237, file: !3, line: 114, column: 11)
!242 = !DILocation(line: 114, column: 29, scope: !241)
!243 = !DILocation(line: 114, column: 11, scope: !237)
!244 = !DILocation(line: 116, column: 7, scope: !245)
!245 = distinct !DILexicalBlock(scope: !241, file: !3, line: 115, column: 1)
!246 = !DILocation(line: 117, column: 1, scope: !245)
!247 = !DILocation(line: 114, column: 34, scope: !241)
!248 = !DILocation(line: 114, column: 11, scope: !241)
!249 = distinct !{!249, !243, !250}
!250 = !DILocation(line: 117, column: 1, scope: !237)
!251 = !DILocation(line: 118, column: 1, scope: !235)
!252 = !DILocation(line: 111, column: 32, scope: !231)
!253 = !DILocation(line: 111, column: 9, scope: !231)
!254 = distinct !{!254, !233, !255}
!255 = !DILocation(line: 118, column: 1, scope: !227)
!256 = !DILocation(line: 119, column: 1, scope: !225)
!257 = !DILocation(line: 108, column: 30, scope: !221)
!258 = !DILocation(line: 108, column: 7, scope: !221)
!259 = distinct !{!259, !223, !260}
!260 = !DILocation(line: 119, column: 1, scope: !217)
!261 = !DILocation(line: 120, column: 1, scope: !215)
!262 = !DILocation(line: 105, column: 28, scope: !211)
!263 = !DILocation(line: 105, column: 5, scope: !211)
!264 = distinct !{!264, !213, !265}
!265 = !DILocation(line: 120, column: 1, scope: !207)
!266 = !DILocation(line: 121, column: 1, scope: !205)
!267 = !DILocation(line: 102, column: 26, scope: !201)
!268 = !DILocation(line: 102, column: 3, scope: !201)
!269 = distinct !{!269, !203, !270}
!270 = !DILocation(line: 121, column: 1, scope: !197)
!271 = !DILocation(line: 122, column: 1, scope: !195)
!272 = !DILocation(line: 99, column: 34, scope: !191)
!273 = !DILocation(line: 99, column: 11, scope: !191)
!274 = distinct !{!274, !193, !275}
!275 = !DILocation(line: 122, column: 1, scope: !187)
!276 = !DILocation(line: 123, column: 1, scope: !185)
!277 = !DILocation(line: 96, column: 32, scope: !181)
!278 = !DILocation(line: 96, column: 9, scope: !181)
!279 = distinct !{!279, !183, !280}
!280 = !DILocation(line: 123, column: 1, scope: !177)
!281 = !DILocation(line: 124, column: 1, scope: !175)
!282 = !DILocation(line: 93, column: 30, scope: !171)
!283 = !DILocation(line: 93, column: 7, scope: !171)
!284 = distinct !{!284, !173, !285}
!285 = !DILocation(line: 124, column: 1, scope: !167)
!286 = !DILocation(line: 125, column: 1, scope: !165)
!287 = !DILocation(line: 90, column: 28, scope: !161)
!288 = !DILocation(line: 90, column: 5, scope: !161)
!289 = distinct !{!289, !163, !290}
!290 = !DILocation(line: 125, column: 1, scope: !157)
!291 = !DILocation(line: 126, column: 1, scope: !155)
!292 = !DILocation(line: 87, column: 26, scope: !151)
!293 = !DILocation(line: 87, column: 3, scope: !151)
!294 = distinct !{!294, !153, !295}
!295 = !DILocation(line: 126, column: 1, scope: !147)
!296 = !DILocation(line: 127, column: 3, scope: !18)
!297 = !DILocalVariable(name: "argc", arg: 1, scope: !28, file: !3, line: 70, type: !9)
!298 = !DILocation(line: 70, column: 11, scope: !28)
!299 = !DILocalVariable(name: "b", scope: !28, file: !3, line: 71, type: !9)
!300 = !DILocation(line: 71, column: 5, scope: !28)
!301 = !DILocation(line: 71, column: 9, scope: !28)
!302 = !DILocalVariable(name: "c", scope: !28, file: !3, line: 71, type: !9)
!303 = !DILocation(line: 71, column: 15, scope: !28)
!304 = !DILocalVariable(name: "d", scope: !28, file: !3, line: 71, type: !9)
!305 = !DILocation(line: 71, column: 18, scope: !28)
!306 = !DILocalVariable(name: "e", scope: !28, file: !3, line: 71, type: !9)
!307 = !DILocation(line: 71, column: 21, scope: !28)
!308 = !DILocalVariable(name: "f", scope: !28, file: !3, line: 71, type: !9)
!309 = !DILocation(line: 71, column: 24, scope: !28)
!310 = !DILocalVariable(name: "h", scope: !28, file: !3, line: 71, type: !9)
!311 = !DILocation(line: 71, column: 27, scope: !28)
!312 = !DILocation(line: 77, column: 1, scope: !28)
!313 = !DILocation(line: 78, column: 1, scope: !28)
!314 = !DILocalVariable(name: "i", scope: !315, file: !3, line: 79, type: !6)
!315 = distinct !DILexicalBlock(scope: !28, file: !3, line: 79, column: 3)
!316 = !DILocation(line: 79, column: 12, scope: !315)
!317 = !DILocation(line: 79, column: 8, scope: !315)
!318 = !DILocation(line: 79, column: 19, scope: !319)
!319 = distinct !DILexicalBlock(scope: !315, file: !3, line: 79, column: 3)
!320 = !DILocation(line: 79, column: 21, scope: !319)
!321 = !DILocation(line: 79, column: 3, scope: !315)
!322 = !DILocation(line: 81, column: 7, scope: !323)
!323 = distinct !DILexicalBlock(scope: !319, file: !3, line: 80, column: 1)
!324 = !DILocation(line: 82, column: 1, scope: !323)
!325 = !DILocation(line: 79, column: 26, scope: !319)
!326 = !DILocation(line: 79, column: 3, scope: !319)
!327 = distinct !{!327, !321, !328}
!328 = !DILocation(line: 82, column: 1, scope: !315)
!329 = !DILocation(line: 85, column: 1, scope: !28)
!330 = !DILocation(line: 86, column: 1, scope: !28)
!331 = !DILocalVariable(name: "i", scope: !332, file: !3, line: 87, type: !6)
!332 = distinct !DILexicalBlock(scope: !28, file: !3, line: 87, column: 3)
!333 = !DILocation(line: 87, column: 12, scope: !332)
!334 = !DILocation(line: 87, column: 8, scope: !332)
!335 = !DILocation(line: 87, column: 19, scope: !336)
!336 = distinct !DILexicalBlock(scope: !332, file: !3, line: 87, column: 3)
!337 = !DILocation(line: 87, column: 21, scope: !336)
!338 = !DILocation(line: 87, column: 3, scope: !332)
!339 = !DILocation(line: 89, column: 1, scope: !340)
!340 = distinct !DILexicalBlock(scope: !336, file: !3, line: 88, column: 1)
!341 = !DILocalVariable(name: "j", scope: !342, file: !3, line: 90, type: !6)
!342 = distinct !DILexicalBlock(scope: !340, file: !3, line: 90, column: 5)
!343 = !DILocation(line: 90, column: 14, scope: !342)
!344 = !DILocation(line: 90, column: 10, scope: !342)
!345 = !DILocation(line: 90, column: 21, scope: !346)
!346 = distinct !DILexicalBlock(scope: !342, file: !3, line: 90, column: 5)
!347 = !DILocation(line: 90, column: 23, scope: !346)
!348 = !DILocation(line: 90, column: 5, scope: !342)
!349 = !DILocation(line: 92, column: 1, scope: !350)
!350 = distinct !DILexicalBlock(scope: !346, file: !3, line: 91, column: 1)
!351 = !DILocalVariable(name: "j", scope: !352, file: !3, line: 93, type: !6)
!352 = distinct !DILexicalBlock(scope: !350, file: !3, line: 93, column: 7)
!353 = !DILocation(line: 93, column: 16, scope: !352)
!354 = !DILocation(line: 93, column: 12, scope: !352)
!355 = !DILocation(line: 93, column: 23, scope: !356)
!356 = distinct !DILexicalBlock(scope: !352, file: !3, line: 93, column: 7)
!357 = !DILocation(line: 93, column: 25, scope: !356)
!358 = !DILocation(line: 93, column: 7, scope: !352)
!359 = !DILocation(line: 95, column: 1, scope: !360)
!360 = distinct !DILexicalBlock(scope: !356, file: !3, line: 94, column: 1)
!361 = !DILocalVariable(name: "j", scope: !362, file: !3, line: 96, type: !6)
!362 = distinct !DILexicalBlock(scope: !360, file: !3, line: 96, column: 9)
!363 = !DILocation(line: 96, column: 18, scope: !362)
!364 = !DILocation(line: 96, column: 14, scope: !362)
!365 = !DILocation(line: 96, column: 25, scope: !366)
!366 = distinct !DILexicalBlock(scope: !362, file: !3, line: 96, column: 9)
!367 = !DILocation(line: 96, column: 27, scope: !366)
!368 = !DILocation(line: 96, column: 9, scope: !362)
!369 = !DILocation(line: 98, column: 1, scope: !370)
!370 = distinct !DILexicalBlock(scope: !366, file: !3, line: 97, column: 1)
!371 = !DILocalVariable(name: "j", scope: !372, file: !3, line: 99, type: !6)
!372 = distinct !DILexicalBlock(scope: !370, file: !3, line: 99, column: 11)
!373 = !DILocation(line: 99, column: 20, scope: !372)
!374 = !DILocation(line: 99, column: 16, scope: !372)
!375 = !DILocation(line: 99, column: 27, scope: !376)
!376 = distinct !DILexicalBlock(scope: !372, file: !3, line: 99, column: 11)
!377 = !DILocation(line: 99, column: 29, scope: !376)
!378 = !DILocation(line: 99, column: 11, scope: !372)
!379 = !DILocation(line: 101, column: 1, scope: !380)
!380 = distinct !DILexicalBlock(scope: !376, file: !3, line: 100, column: 1)
!381 = !DILocalVariable(name: "i", scope: !382, file: !3, line: 102, type: !6)
!382 = distinct !DILexicalBlock(scope: !380, file: !3, line: 102, column: 3)
!383 = !DILocation(line: 102, column: 12, scope: !382)
!384 = !DILocation(line: 102, column: 8, scope: !382)
!385 = !DILocation(line: 102, column: 19, scope: !386)
!386 = distinct !DILexicalBlock(scope: !382, file: !3, line: 102, column: 3)
!387 = !DILocation(line: 102, column: 21, scope: !386)
!388 = !DILocation(line: 102, column: 3, scope: !382)
!389 = !DILocation(line: 104, column: 1, scope: !390)
!390 = distinct !DILexicalBlock(scope: !386, file: !3, line: 103, column: 1)
!391 = !DILocalVariable(name: "j", scope: !392, file: !3, line: 105, type: !6)
!392 = distinct !DILexicalBlock(scope: !390, file: !3, line: 105, column: 5)
!393 = !DILocation(line: 105, column: 14, scope: !392)
!394 = !DILocation(line: 105, column: 10, scope: !392)
!395 = !DILocation(line: 105, column: 21, scope: !396)
!396 = distinct !DILexicalBlock(scope: !392, file: !3, line: 105, column: 5)
!397 = !DILocation(line: 105, column: 23, scope: !396)
!398 = !DILocation(line: 105, column: 5, scope: !392)
!399 = !DILocation(line: 107, column: 1, scope: !400)
!400 = distinct !DILexicalBlock(scope: !396, file: !3, line: 106, column: 1)
!401 = !DILocalVariable(name: "j", scope: !402, file: !3, line: 108, type: !6)
!402 = distinct !DILexicalBlock(scope: !400, file: !3, line: 108, column: 7)
!403 = !DILocation(line: 108, column: 16, scope: !402)
!404 = !DILocation(line: 108, column: 12, scope: !402)
!405 = !DILocation(line: 108, column: 23, scope: !406)
!406 = distinct !DILexicalBlock(scope: !402, file: !3, line: 108, column: 7)
!407 = !DILocation(line: 108, column: 25, scope: !406)
!408 = !DILocation(line: 108, column: 7, scope: !402)
!409 = !DILocation(line: 110, column: 1, scope: !410)
!410 = distinct !DILexicalBlock(scope: !406, file: !3, line: 109, column: 1)
!411 = !DILocalVariable(name: "j", scope: !412, file: !3, line: 111, type: !6)
!412 = distinct !DILexicalBlock(scope: !410, file: !3, line: 111, column: 9)
!413 = !DILocation(line: 111, column: 18, scope: !412)
!414 = !DILocation(line: 111, column: 14, scope: !412)
!415 = !DILocation(line: 111, column: 25, scope: !416)
!416 = distinct !DILexicalBlock(scope: !412, file: !3, line: 111, column: 9)
!417 = !DILocation(line: 111, column: 27, scope: !416)
!418 = !DILocation(line: 111, column: 9, scope: !412)
!419 = !DILocation(line: 113, column: 1, scope: !420)
!420 = distinct !DILexicalBlock(scope: !416, file: !3, line: 112, column: 1)
!421 = !DILocalVariable(name: "j", scope: !422, file: !3, line: 114, type: !6)
!422 = distinct !DILexicalBlock(scope: !420, file: !3, line: 114, column: 11)
!423 = !DILocation(line: 114, column: 20, scope: !422)
!424 = !DILocation(line: 114, column: 16, scope: !422)
!425 = !DILocation(line: 114, column: 27, scope: !426)
!426 = distinct !DILexicalBlock(scope: !422, file: !3, line: 114, column: 11)
!427 = !DILocation(line: 114, column: 29, scope: !426)
!428 = !DILocation(line: 114, column: 11, scope: !422)
!429 = !DILocation(line: 116, column: 7, scope: !430)
!430 = distinct !DILexicalBlock(scope: !426, file: !3, line: 115, column: 1)
!431 = !DILocation(line: 117, column: 1, scope: !430)
!432 = !DILocation(line: 114, column: 34, scope: !426)
!433 = !DILocation(line: 114, column: 11, scope: !426)
!434 = distinct !{!434, !428, !435}
!435 = !DILocation(line: 117, column: 1, scope: !422)
!436 = !DILocation(line: 118, column: 1, scope: !420)
!437 = !DILocation(line: 111, column: 32, scope: !416)
!438 = !DILocation(line: 111, column: 9, scope: !416)
!439 = distinct !{!439, !418, !440}
!440 = !DILocation(line: 118, column: 1, scope: !412)
!441 = !DILocation(line: 119, column: 1, scope: !410)
!442 = !DILocation(line: 108, column: 30, scope: !406)
!443 = !DILocation(line: 108, column: 7, scope: !406)
!444 = distinct !{!444, !408, !445}
!445 = !DILocation(line: 119, column: 1, scope: !402)
!446 = !DILocation(line: 120, column: 1, scope: !400)
!447 = !DILocation(line: 105, column: 28, scope: !396)
!448 = !DILocation(line: 105, column: 5, scope: !396)
!449 = distinct !{!449, !398, !450}
!450 = !DILocation(line: 120, column: 1, scope: !392)
!451 = !DILocation(line: 121, column: 1, scope: !390)
!452 = !DILocation(line: 102, column: 26, scope: !386)
!453 = !DILocation(line: 102, column: 3, scope: !386)
!454 = distinct !{!454, !388, !455}
!455 = !DILocation(line: 121, column: 1, scope: !382)
!456 = !DILocation(line: 122, column: 1, scope: !380)
!457 = !DILocation(line: 99, column: 34, scope: !376)
!458 = !DILocation(line: 99, column: 11, scope: !376)
!459 = distinct !{!459, !378, !460}
!460 = !DILocation(line: 122, column: 1, scope: !372)
!461 = !DILocation(line: 123, column: 1, scope: !370)
!462 = !DILocation(line: 96, column: 32, scope: !366)
!463 = !DILocation(line: 96, column: 9, scope: !366)
!464 = distinct !{!464, !368, !465}
!465 = !DILocation(line: 123, column: 1, scope: !362)
!466 = !DILocation(line: 124, column: 1, scope: !360)
!467 = !DILocation(line: 93, column: 30, scope: !356)
!468 = !DILocation(line: 93, column: 7, scope: !356)
!469 = distinct !{!469, !358, !470}
!470 = !DILocation(line: 124, column: 1, scope: !352)
!471 = !DILocation(line: 125, column: 1, scope: !350)
!472 = !DILocation(line: 90, column: 28, scope: !346)
!473 = !DILocation(line: 90, column: 5, scope: !346)
!474 = distinct !{!474, !348, !475}
!475 = !DILocation(line: 125, column: 1, scope: !342)
!476 = !DILocation(line: 126, column: 1, scope: !340)
!477 = !DILocation(line: 87, column: 26, scope: !336)
!478 = !DILocation(line: 87, column: 3, scope: !336)
!479 = distinct !{!479, !338, !480}
!480 = !DILocation(line: 126, column: 1, scope: !332)
!481 = !DILocation(line: 127, column: 3, scope: !28)
