; ModuleID = 'teams_distribute_parallel_for_collapse_messages.cpp'
source_filename = "teams_distribute_parallel_for_collapse_messages.cpp"
target datalayout = "e-m:e-p270:32:32-p271:32:32-p272:64:64-i64:64-f80:128-n8:16:32:64-S128"
target triple = "x86_64-pc-linux-gnu"

$_Z5tmainIicLi1ELi0EET_S0_PPT0_ = comdat any

@.str = private unnamed_addr constant [52 x i8] c"#pragma omp teams distribute parallel for collapse \00", align 1
@.str.1 = private unnamed_addr constant [54 x i8] c"#pragma omp teams distribute parallel for collapse ( \00", align 1
@.str.2 = private unnamed_addr constant [55 x i8] c"#pragma omp teams distribute parallel for collapse () \00", align 1
@.str.3 = private unnamed_addr constant [55 x i8] c"#pragma omp teams distribute parallel for collapse (4 \00", align 1
@.str.4 = private unnamed_addr constant [59 x i8] c"#pragma omp teams distribute parallel for collapse (2+2)) \00", align 1
@.str.5 = private unnamed_addr constant [77 x i8] c"#pragma omp teams distribute parallel for collapse (foobool(1) > 0 ? 1 : 2) \00", align 1
@.str.6 = private unnamed_addr constant [100 x i8] c"#pragma omp teams distribute parallel for collapse (foobool(argc)), collapse (true), collapse (-5) \00", align 1
@.str.7 = private unnamed_addr constant [57 x i8] c"#pragma omp teams distribute parallel for collapse (s1) \00", align 1
@.str.8 = private unnamed_addr constant [64 x i8] c"#pragma omp teams distribute parallel for collapse (argv[1]=2) \00", align 1
@.str.9 = private unnamed_addr constant [98 x i8] c"#pragma omp teams distribute parallel for collapse(collapse(tmain<int, char, -1, -2>(argc, argv) \00", align 1
@.str.10 = private unnamed_addr constant [56 x i8] c"#pragma omp teams distribute parallel for collapse (2) \00", align 1
@.str.11 = private unnamed_addr constant [58 x i8] c"#pragma omp teams distribute parallel for collapse (argc \00", align 1
@.str.12 = private unnamed_addr constant [56 x i8] c"#pragma omp teams distribute parallel for collapse (st \00", align 1
@.str.13 = private unnamed_addr constant [57 x i8] c"#pragma omp teams distribute parallel for collapse (1)) \00", align 1
@.str.14 = private unnamed_addr constant [76 x i8] c"#pragma omp teams distribute parallel for collapse ((st > 0) ? 1 + st : 2) \00", align 1
@.str.15 = private unnamed_addr constant [99 x i8] c"#pragma omp teams distribute parallel for collapse (foobool(argc)), collapse (true), collapse (-5)\00", align 1
@.str.16 = private unnamed_addr constant [55 x i8] c"#pragma omp teams distribute parallel for collapse (1)\00", align 1
@.str.17 = private unnamed_addr constant [56 x i8] c"#pragma omp teams distribute parallel for collapse (n) \00", align 1

; Function Attrs: noinline nounwind optnone uwtable
define dso_local void @_Z3foov() #0 !dbg !7 {
  ret void, !dbg !10
}

; Function Attrs: noinline nounwind optnone uwtable
define dso_local zeroext i1 @_Z7foobooli(i32 %0) #0 !dbg !11 {
  %2 = alloca i32, align 4
  store i32 %0, i32* %2, align 4
  call void @llvm.dbg.declare(metadata i32* %2, metadata !16, metadata !DIExpression()), !dbg !17
  %3 = load i32, i32* %2, align 4, !dbg !18
  %4 = icmp ne i32 %3, 0, !dbg !18
  ret i1 %4, !dbg !19
}

; Function Attrs: nounwind readnone speculatable willreturn
declare void @llvm.dbg.declare(metadata, metadata, metadata) #1

; Function Attrs: noinline norecurse optnone uwtable
define dso_local i32 @main(i32 %0, i8** %1) #2 !dbg !20 {
  %3 = alloca i32, align 4
  %4 = alloca i32, align 4
  %5 = alloca i8**, align 8
  %6 = alloca i32, align 4
  %7 = alloca i32, align 4
  %8 = alloca i32, align 4
  %9 = alloca i32, align 4
  %10 = alloca i32, align 4
  %11 = alloca i32, align 4
  %12 = alloca i32, align 4
  %13 = alloca i32, align 4
  %14 = alloca i32, align 4
  store i32 0, i32* %3, align 4
  store i32 %0, i32* %4, align 4
  call void @llvm.dbg.declare(metadata i32* %4, metadata !26, metadata !DIExpression()), !dbg !27
  store i8** %1, i8*** %5, align 8
  call void @llvm.dbg.declare(metadata i8*** %5, metadata !28, metadata !DIExpression()), !dbg !29
  call void @_Z25omp_for_pragma_talkad7420Pc(i8* getelementptr inbounds ([52 x i8], [52 x i8]* @.str, i64 0, i64 0)), !dbg !30
  call void @_Z19for_loop_talkad7420v(), !dbg !31
  call void @llvm.dbg.declare(metadata i32* %6, metadata !32, metadata !DIExpression()), !dbg !34
  store i32 4, i32* %6, align 4, !dbg !34
  br label %15, !dbg !35

15:                                               ; preds = %44, %2
  %16 = load i32, i32* %6, align 4, !dbg !36
  %17 = icmp slt i32 %16, 12, !dbg !38
  br i1 %17, label %18, label %47, !dbg !39

18:                                               ; preds = %15
  %19 = load i8**, i8*** %5, align 8, !dbg !40
  %20 = getelementptr inbounds i8*, i8** %19, i64 0, !dbg !40
  %21 = load i8*, i8** %20, align 8, !dbg !40
  %22 = load i32, i32* %6, align 4, !dbg !42
  %23 = sext i32 %22 to i64, !dbg !40
  %24 = getelementptr inbounds i8, i8* %21, i64 %23, !dbg !40
  %25 = load i8, i8* %24, align 1, !dbg !40
  %26 = sext i8 %25 to i32, !dbg !40
  %27 = load i8**, i8*** %5, align 8, !dbg !43
  %28 = getelementptr inbounds i8*, i8** %27, i64 0, !dbg !43
  %29 = load i8*, i8** %28, align 8, !dbg !43
  %30 = load i32, i32* %6, align 4, !dbg !44
  %31 = sub nsw i32 %30, 4, !dbg !45
  %32 = sext i32 %31 to i64, !dbg !43
  %33 = getelementptr inbounds i8, i8* %29, i64 %32, !dbg !43
  %34 = load i8, i8* %33, align 1, !dbg !43
  %35 = sext i8 %34 to i32, !dbg !43
  %36 = sub nsw i32 %26, %35, !dbg !46
  %37 = trunc i32 %36 to i8, !dbg !40
  %38 = load i8**, i8*** %5, align 8, !dbg !47
  %39 = getelementptr inbounds i8*, i8** %38, i64 0, !dbg !47
  %40 = load i8*, i8** %39, align 8, !dbg !47
  %41 = load i32, i32* %6, align 4, !dbg !48
  %42 = sext i32 %41 to i64, !dbg !47
  %43 = getelementptr inbounds i8, i8* %40, i64 %42, !dbg !47
  store i8 %37, i8* %43, align 1, !dbg !49
  br label %44, !dbg !50

44:                                               ; preds = %18
  %45 = load i32, i32* %6, align 4, !dbg !51
  %46 = add nsw i32 %45, 1, !dbg !51
  store i32 %46, i32* %6, align 4, !dbg !51
  br label %15, !dbg !52, !llvm.loop !53

47:                                               ; preds = %15
  call void @_Z25omp_for_pragma_talkad7420Pc(i8* getelementptr inbounds ([54 x i8], [54 x i8]* @.str.1, i64 0, i64 0)), !dbg !55
  call void @_Z19for_loop_talkad7420v(), !dbg !56
  call void @llvm.dbg.declare(metadata i32* %7, metadata !57, metadata !DIExpression()), !dbg !59
  store i32 4, i32* %7, align 4, !dbg !59
  br label %48, !dbg !60

48:                                               ; preds = %77, %47
  %49 = load i32, i32* %7, align 4, !dbg !61
  %50 = icmp slt i32 %49, 12, !dbg !63
  br i1 %50, label %51, label %80, !dbg !64

51:                                               ; preds = %48
  %52 = load i8**, i8*** %5, align 8, !dbg !65
  %53 = getelementptr inbounds i8*, i8** %52, i64 0, !dbg !65
  %54 = load i8*, i8** %53, align 8, !dbg !65
  %55 = load i32, i32* %7, align 4, !dbg !67
  %56 = sext i32 %55 to i64, !dbg !65
  %57 = getelementptr inbounds i8, i8* %54, i64 %56, !dbg !65
  %58 = load i8, i8* %57, align 1, !dbg !65
  %59 = sext i8 %58 to i32, !dbg !65
  %60 = load i8**, i8*** %5, align 8, !dbg !68
  %61 = getelementptr inbounds i8*, i8** %60, i64 0, !dbg !68
  %62 = load i8*, i8** %61, align 8, !dbg !68
  %63 = load i32, i32* %7, align 4, !dbg !69
  %64 = sub nsw i32 %63, 4, !dbg !70
  %65 = sext i32 %64 to i64, !dbg !68
  %66 = getelementptr inbounds i8, i8* %62, i64 %65, !dbg !68
  %67 = load i8, i8* %66, align 1, !dbg !68
  %68 = sext i8 %67 to i32, !dbg !68
  %69 = sub nsw i32 %59, %68, !dbg !71
  %70 = trunc i32 %69 to i8, !dbg !65
  %71 = load i8**, i8*** %5, align 8, !dbg !72
  %72 = getelementptr inbounds i8*, i8** %71, i64 0, !dbg !72
  %73 = load i8*, i8** %72, align 8, !dbg !72
  %74 = load i32, i32* %7, align 4, !dbg !73
  %75 = sext i32 %74 to i64, !dbg !72
  %76 = getelementptr inbounds i8, i8* %73, i64 %75, !dbg !72
  store i8 %70, i8* %76, align 1, !dbg !74
  br label %77, !dbg !75

77:                                               ; preds = %51
  %78 = load i32, i32* %7, align 4, !dbg !76
  %79 = add nsw i32 %78, 1, !dbg !76
  store i32 %79, i32* %7, align 4, !dbg !76
  br label %48, !dbg !77, !llvm.loop !78

80:                                               ; preds = %48
  call void @_Z25omp_for_pragma_talkad7420Pc(i8* getelementptr inbounds ([55 x i8], [55 x i8]* @.str.2, i64 0, i64 0)), !dbg !80
  call void @_Z19for_loop_talkad7420v(), !dbg !81
  call void @llvm.dbg.declare(metadata i32* %8, metadata !82, metadata !DIExpression()), !dbg !84
  store i32 4, i32* %8, align 4, !dbg !84
  br label %81, !dbg !85

81:                                               ; preds = %110, %80
  %82 = load i32, i32* %8, align 4, !dbg !86
  %83 = icmp slt i32 %82, 12, !dbg !88
  br i1 %83, label %84, label %113, !dbg !89

84:                                               ; preds = %81
  %85 = load i8**, i8*** %5, align 8, !dbg !90
  %86 = getelementptr inbounds i8*, i8** %85, i64 0, !dbg !90
  %87 = load i8*, i8** %86, align 8, !dbg !90
  %88 = load i32, i32* %8, align 4, !dbg !92
  %89 = sext i32 %88 to i64, !dbg !90
  %90 = getelementptr inbounds i8, i8* %87, i64 %89, !dbg !90
  %91 = load i8, i8* %90, align 1, !dbg !90
  %92 = sext i8 %91 to i32, !dbg !90
  %93 = load i8**, i8*** %5, align 8, !dbg !93
  %94 = getelementptr inbounds i8*, i8** %93, i64 0, !dbg !93
  %95 = load i8*, i8** %94, align 8, !dbg !93
  %96 = load i32, i32* %8, align 4, !dbg !94
  %97 = sub nsw i32 %96, 4, !dbg !95
  %98 = sext i32 %97 to i64, !dbg !93
  %99 = getelementptr inbounds i8, i8* %95, i64 %98, !dbg !93
  %100 = load i8, i8* %99, align 1, !dbg !93
  %101 = sext i8 %100 to i32, !dbg !93
  %102 = sub nsw i32 %92, %101, !dbg !96
  %103 = trunc i32 %102 to i8, !dbg !90
  %104 = load i8**, i8*** %5, align 8, !dbg !97
  %105 = getelementptr inbounds i8*, i8** %104, i64 0, !dbg !97
  %106 = load i8*, i8** %105, align 8, !dbg !97
  %107 = load i32, i32* %8, align 4, !dbg !98
  %108 = sext i32 %107 to i64, !dbg !97
  %109 = getelementptr inbounds i8, i8* %106, i64 %108, !dbg !97
  store i8 %103, i8* %109, align 1, !dbg !99
  br label %110, !dbg !100

110:                                              ; preds = %84
  %111 = load i32, i32* %8, align 4, !dbg !101
  %112 = add nsw i32 %111, 1, !dbg !101
  store i32 %112, i32* %8, align 4, !dbg !101
  br label %81, !dbg !102, !llvm.loop !103

113:                                              ; preds = %81
  call void @_Z25omp_for_pragma_talkad7420Pc(i8* getelementptr inbounds ([55 x i8], [55 x i8]* @.str.3, i64 0, i64 0)), !dbg !105
  call void @_Z19for_loop_talkad7420v(), !dbg !106
  call void @llvm.dbg.declare(metadata i32* %9, metadata !107, metadata !DIExpression()), !dbg !109
  store i32 4, i32* %9, align 4, !dbg !109
  br label %114, !dbg !110

114:                                              ; preds = %143, %113
  %115 = load i32, i32* %9, align 4, !dbg !111
  %116 = icmp slt i32 %115, 12, !dbg !113
  br i1 %116, label %117, label %146, !dbg !114

117:                                              ; preds = %114
  %118 = load i8**, i8*** %5, align 8, !dbg !115
  %119 = getelementptr inbounds i8*, i8** %118, i64 0, !dbg !115
  %120 = load i8*, i8** %119, align 8, !dbg !115
  %121 = load i32, i32* %9, align 4, !dbg !117
  %122 = sext i32 %121 to i64, !dbg !115
  %123 = getelementptr inbounds i8, i8* %120, i64 %122, !dbg !115
  %124 = load i8, i8* %123, align 1, !dbg !115
  %125 = sext i8 %124 to i32, !dbg !115
  %126 = load i8**, i8*** %5, align 8, !dbg !118
  %127 = getelementptr inbounds i8*, i8** %126, i64 0, !dbg !118
  %128 = load i8*, i8** %127, align 8, !dbg !118
  %129 = load i32, i32* %9, align 4, !dbg !119
  %130 = sub nsw i32 %129, 4, !dbg !120
  %131 = sext i32 %130 to i64, !dbg !118
  %132 = getelementptr inbounds i8, i8* %128, i64 %131, !dbg !118
  %133 = load i8, i8* %132, align 1, !dbg !118
  %134 = sext i8 %133 to i32, !dbg !118
  %135 = sub nsw i32 %125, %134, !dbg !121
  %136 = trunc i32 %135 to i8, !dbg !115
  %137 = load i8**, i8*** %5, align 8, !dbg !122
  %138 = getelementptr inbounds i8*, i8** %137, i64 0, !dbg !122
  %139 = load i8*, i8** %138, align 8, !dbg !122
  %140 = load i32, i32* %9, align 4, !dbg !123
  %141 = sext i32 %140 to i64, !dbg !122
  %142 = getelementptr inbounds i8, i8* %139, i64 %141, !dbg !122
  store i8 %136, i8* %142, align 1, !dbg !124
  br label %143, !dbg !125

143:                                              ; preds = %117
  %144 = load i32, i32* %9, align 4, !dbg !126
  %145 = add nsw i32 %144, 1, !dbg !126
  store i32 %145, i32* %9, align 4, !dbg !126
  br label %114, !dbg !127, !llvm.loop !128

146:                                              ; preds = %114
  call void @_Z25omp_for_pragma_talkad7420Pc(i8* getelementptr inbounds ([59 x i8], [59 x i8]* @.str.4, i64 0, i64 0)), !dbg !130
  call void @_Z19for_loop_talkad7420v(), !dbg !131
  call void @llvm.dbg.declare(metadata i32* %10, metadata !132, metadata !DIExpression()), !dbg !134
  store i32 4, i32* %10, align 4, !dbg !134
  br label %147, !dbg !135

147:                                              ; preds = %176, %146
  %148 = load i32, i32* %10, align 4, !dbg !136
  %149 = icmp slt i32 %148, 12, !dbg !138
  br i1 %149, label %150, label %179, !dbg !139

150:                                              ; preds = %147
  %151 = load i8**, i8*** %5, align 8, !dbg !140
  %152 = getelementptr inbounds i8*, i8** %151, i64 0, !dbg !140
  %153 = load i8*, i8** %152, align 8, !dbg !140
  %154 = load i32, i32* %10, align 4, !dbg !142
  %155 = sext i32 %154 to i64, !dbg !140
  %156 = getelementptr inbounds i8, i8* %153, i64 %155, !dbg !140
  %157 = load i8, i8* %156, align 1, !dbg !140
  %158 = sext i8 %157 to i32, !dbg !140
  %159 = load i8**, i8*** %5, align 8, !dbg !143
  %160 = getelementptr inbounds i8*, i8** %159, i64 0, !dbg !143
  %161 = load i8*, i8** %160, align 8, !dbg !143
  %162 = load i32, i32* %10, align 4, !dbg !144
  %163 = sub nsw i32 %162, 4, !dbg !145
  %164 = sext i32 %163 to i64, !dbg !143
  %165 = getelementptr inbounds i8, i8* %161, i64 %164, !dbg !143
  %166 = load i8, i8* %165, align 1, !dbg !143
  %167 = sext i8 %166 to i32, !dbg !143
  %168 = sub nsw i32 %158, %167, !dbg !146
  %169 = trunc i32 %168 to i8, !dbg !140
  %170 = load i8**, i8*** %5, align 8, !dbg !147
  %171 = getelementptr inbounds i8*, i8** %170, i64 0, !dbg !147
  %172 = load i8*, i8** %171, align 8, !dbg !147
  %173 = load i32, i32* %10, align 4, !dbg !148
  %174 = sext i32 %173 to i64, !dbg !147
  %175 = getelementptr inbounds i8, i8* %172, i64 %174, !dbg !147
  store i8 %169, i8* %175, align 1, !dbg !149
  br label %176, !dbg !150

176:                                              ; preds = %150
  %177 = load i32, i32* %10, align 4, !dbg !151
  %178 = add nsw i32 %177, 1, !dbg !151
  store i32 %178, i32* %10, align 4, !dbg !151
  br label %147, !dbg !152, !llvm.loop !153

179:                                              ; preds = %147
  call void @_Z25omp_for_pragma_talkad7420Pc(i8* getelementptr inbounds ([77 x i8], [77 x i8]* @.str.5, i64 0, i64 0)), !dbg !155
  call void @_Z19for_loop_talkad7420v(), !dbg !156
  call void @llvm.dbg.declare(metadata i32* %11, metadata !157, metadata !DIExpression()), !dbg !159
  store i32 4, i32* %11, align 4, !dbg !159
  br label %180, !dbg !160

180:                                              ; preds = %209, %179
  %181 = load i32, i32* %11, align 4, !dbg !161
  %182 = icmp slt i32 %181, 12, !dbg !163
  br i1 %182, label %183, label %212, !dbg !164

183:                                              ; preds = %180
  %184 = load i8**, i8*** %5, align 8, !dbg !165
  %185 = getelementptr inbounds i8*, i8** %184, i64 0, !dbg !165
  %186 = load i8*, i8** %185, align 8, !dbg !165
  %187 = load i32, i32* %11, align 4, !dbg !167
  %188 = sext i32 %187 to i64, !dbg !165
  %189 = getelementptr inbounds i8, i8* %186, i64 %188, !dbg !165
  %190 = load i8, i8* %189, align 1, !dbg !165
  %191 = sext i8 %190 to i32, !dbg !165
  %192 = load i8**, i8*** %5, align 8, !dbg !168
  %193 = getelementptr inbounds i8*, i8** %192, i64 0, !dbg !168
  %194 = load i8*, i8** %193, align 8, !dbg !168
  %195 = load i32, i32* %11, align 4, !dbg !169
  %196 = sub nsw i32 %195, 4, !dbg !170
  %197 = sext i32 %196 to i64, !dbg !168
  %198 = getelementptr inbounds i8, i8* %194, i64 %197, !dbg !168
  %199 = load i8, i8* %198, align 1, !dbg !168
  %200 = sext i8 %199 to i32, !dbg !168
  %201 = sub nsw i32 %191, %200, !dbg !171
  %202 = trunc i32 %201 to i8, !dbg !165
  %203 = load i8**, i8*** %5, align 8, !dbg !172
  %204 = getelementptr inbounds i8*, i8** %203, i64 0, !dbg !172
  %205 = load i8*, i8** %204, align 8, !dbg !172
  %206 = load i32, i32* %11, align 4, !dbg !173
  %207 = sext i32 %206 to i64, !dbg !172
  %208 = getelementptr inbounds i8, i8* %205, i64 %207, !dbg !172
  store i8 %202, i8* %208, align 1, !dbg !174
  br label %209, !dbg !175

209:                                              ; preds = %183
  %210 = load i32, i32* %11, align 4, !dbg !176
  %211 = add nsw i32 %210, 1, !dbg !176
  store i32 %211, i32* %11, align 4, !dbg !176
  br label %180, !dbg !177, !llvm.loop !178

212:                                              ; preds = %180
  call void @_Z25omp_for_pragma_talkad7420Pc(i8* getelementptr inbounds ([100 x i8], [100 x i8]* @.str.6, i64 0, i64 0)), !dbg !180
  call void @_Z19for_loop_talkad7420v(), !dbg !181
  call void @llvm.dbg.declare(metadata i32* %12, metadata !182, metadata !DIExpression()), !dbg !184
  store i32 4, i32* %12, align 4, !dbg !184
  br label %213, !dbg !185

213:                                              ; preds = %242, %212
  %214 = load i32, i32* %12, align 4, !dbg !186
  %215 = icmp slt i32 %214, 12, !dbg !188
  br i1 %215, label %216, label %245, !dbg !189

216:                                              ; preds = %213
  %217 = load i8**, i8*** %5, align 8, !dbg !190
  %218 = getelementptr inbounds i8*, i8** %217, i64 0, !dbg !190
  %219 = load i8*, i8** %218, align 8, !dbg !190
  %220 = load i32, i32* %12, align 4, !dbg !192
  %221 = sext i32 %220 to i64, !dbg !190
  %222 = getelementptr inbounds i8, i8* %219, i64 %221, !dbg !190
  %223 = load i8, i8* %222, align 1, !dbg !190
  %224 = sext i8 %223 to i32, !dbg !190
  %225 = load i8**, i8*** %5, align 8, !dbg !193
  %226 = getelementptr inbounds i8*, i8** %225, i64 0, !dbg !193
  %227 = load i8*, i8** %226, align 8, !dbg !193
  %228 = load i32, i32* %12, align 4, !dbg !194
  %229 = sub nsw i32 %228, 4, !dbg !195
  %230 = sext i32 %229 to i64, !dbg !193
  %231 = getelementptr inbounds i8, i8* %227, i64 %230, !dbg !193
  %232 = load i8, i8* %231, align 1, !dbg !193
  %233 = sext i8 %232 to i32, !dbg !193
  %234 = sub nsw i32 %224, %233, !dbg !196
  %235 = trunc i32 %234 to i8, !dbg !190
  %236 = load i8**, i8*** %5, align 8, !dbg !197
  %237 = getelementptr inbounds i8*, i8** %236, i64 0, !dbg !197
  %238 = load i8*, i8** %237, align 8, !dbg !197
  %239 = load i32, i32* %12, align 4, !dbg !198
  %240 = sext i32 %239 to i64, !dbg !197
  %241 = getelementptr inbounds i8, i8* %238, i64 %240, !dbg !197
  store i8 %235, i8* %241, align 1, !dbg !199
  br label %242, !dbg !200

242:                                              ; preds = %216
  %243 = load i32, i32* %12, align 4, !dbg !201
  %244 = add nsw i32 %243, 1, !dbg !201
  store i32 %244, i32* %12, align 4, !dbg !201
  br label %213, !dbg !202, !llvm.loop !203

245:                                              ; preds = %213
  call void @_Z25omp_for_pragma_talkad7420Pc(i8* getelementptr inbounds ([57 x i8], [57 x i8]* @.str.7, i64 0, i64 0)), !dbg !205
  call void @_Z19for_loop_talkad7420v(), !dbg !206
  call void @llvm.dbg.declare(metadata i32* %13, metadata !207, metadata !DIExpression()), !dbg !209
  store i32 4, i32* %13, align 4, !dbg !209
  br label %246, !dbg !210

246:                                              ; preds = %275, %245
  %247 = load i32, i32* %13, align 4, !dbg !211
  %248 = icmp slt i32 %247, 12, !dbg !213
  br i1 %248, label %249, label %278, !dbg !214

249:                                              ; preds = %246
  %250 = load i8**, i8*** %5, align 8, !dbg !215
  %251 = getelementptr inbounds i8*, i8** %250, i64 0, !dbg !215
  %252 = load i8*, i8** %251, align 8, !dbg !215
  %253 = load i32, i32* %13, align 4, !dbg !217
  %254 = sext i32 %253 to i64, !dbg !215
  %255 = getelementptr inbounds i8, i8* %252, i64 %254, !dbg !215
  %256 = load i8, i8* %255, align 1, !dbg !215
  %257 = sext i8 %256 to i32, !dbg !215
  %258 = load i8**, i8*** %5, align 8, !dbg !218
  %259 = getelementptr inbounds i8*, i8** %258, i64 0, !dbg !218
  %260 = load i8*, i8** %259, align 8, !dbg !218
  %261 = load i32, i32* %13, align 4, !dbg !219
  %262 = sub nsw i32 %261, 4, !dbg !220
  %263 = sext i32 %262 to i64, !dbg !218
  %264 = getelementptr inbounds i8, i8* %260, i64 %263, !dbg !218
  %265 = load i8, i8* %264, align 1, !dbg !218
  %266 = sext i8 %265 to i32, !dbg !218
  %267 = sub nsw i32 %257, %266, !dbg !221
  %268 = trunc i32 %267 to i8, !dbg !215
  %269 = load i8**, i8*** %5, align 8, !dbg !222
  %270 = getelementptr inbounds i8*, i8** %269, i64 0, !dbg !222
  %271 = load i8*, i8** %270, align 8, !dbg !222
  %272 = load i32, i32* %13, align 4, !dbg !223
  %273 = sext i32 %272 to i64, !dbg !222
  %274 = getelementptr inbounds i8, i8* %271, i64 %273, !dbg !222
  store i8 %268, i8* %274, align 1, !dbg !224
  br label %275, !dbg !225

275:                                              ; preds = %249
  %276 = load i32, i32* %13, align 4, !dbg !226
  %277 = add nsw i32 %276, 1, !dbg !226
  store i32 %277, i32* %13, align 4, !dbg !226
  br label %246, !dbg !227, !llvm.loop !228

278:                                              ; preds = %246
  call void @_Z25omp_for_pragma_talkad7420Pc(i8* getelementptr inbounds ([64 x i8], [64 x i8]* @.str.8, i64 0, i64 0)), !dbg !230
  call void @_Z19for_loop_talkad7420v(), !dbg !231
  call void @llvm.dbg.declare(metadata i32* %14, metadata !232, metadata !DIExpression()), !dbg !234
  store i32 4, i32* %14, align 4, !dbg !234
  br label %279, !dbg !235

279:                                              ; preds = %308, %278
  %280 = load i32, i32* %14, align 4, !dbg !236
  %281 = icmp slt i32 %280, 12, !dbg !238
  br i1 %281, label %282, label %311, !dbg !239

282:                                              ; preds = %279
  %283 = load i8**, i8*** %5, align 8, !dbg !240
  %284 = getelementptr inbounds i8*, i8** %283, i64 0, !dbg !240
  %285 = load i8*, i8** %284, align 8, !dbg !240
  %286 = load i32, i32* %14, align 4, !dbg !242
  %287 = sext i32 %286 to i64, !dbg !240
  %288 = getelementptr inbounds i8, i8* %285, i64 %287, !dbg !240
  %289 = load i8, i8* %288, align 1, !dbg !240
  %290 = sext i8 %289 to i32, !dbg !240
  %291 = load i8**, i8*** %5, align 8, !dbg !243
  %292 = getelementptr inbounds i8*, i8** %291, i64 0, !dbg !243
  %293 = load i8*, i8** %292, align 8, !dbg !243
  %294 = load i32, i32* %14, align 4, !dbg !244
  %295 = sub nsw i32 %294, 4, !dbg !245
  %296 = sext i32 %295 to i64, !dbg !243
  %297 = getelementptr inbounds i8, i8* %293, i64 %296, !dbg !243
  %298 = load i8, i8* %297, align 1, !dbg !243
  %299 = sext i8 %298 to i32, !dbg !243
  %300 = sub nsw i32 %290, %299, !dbg !246
  %301 = trunc i32 %300 to i8, !dbg !240
  %302 = load i8**, i8*** %5, align 8, !dbg !247
  %303 = getelementptr inbounds i8*, i8** %302, i64 0, !dbg !247
  %304 = load i8*, i8** %303, align 8, !dbg !247
  %305 = load i32, i32* %14, align 4, !dbg !248
  %306 = sext i32 %305 to i64, !dbg !247
  %307 = getelementptr inbounds i8, i8* %304, i64 %306, !dbg !247
  store i8 %301, i8* %307, align 1, !dbg !249
  br label %308, !dbg !250

308:                                              ; preds = %282
  %309 = load i32, i32* %14, align 4, !dbg !251
  %310 = add nsw i32 %309, 1, !dbg !251
  store i32 %310, i32* %14, align 4, !dbg !251
  br label %279, !dbg !252, !llvm.loop !253

311:                                              ; preds = %279
  call void @_Z25omp_for_pragma_talkad7420Pc(i8* getelementptr inbounds ([98 x i8], [98 x i8]* @.str.9, i64 0, i64 0)), !dbg !255
  call void @_Z3foov(), !dbg !256
  call void @_Z25omp_for_pragma_talkad7420Pc(i8* getelementptr inbounds ([56 x i8], [56 x i8]* @.str.10, i64 0, i64 0)), !dbg !257
  call void @_Z3foov(), !dbg !258
  %312 = load i32, i32* %4, align 4, !dbg !259
  %313 = load i8**, i8*** %5, align 8, !dbg !260
  %314 = call i32 @_Z5tmainIicLi1ELi0EET_S0_PPT0_(i32 %312, i8** %313), !dbg !261
  ret i32 %314, !dbg !262
}

declare dso_local void @_Z25omp_for_pragma_talkad7420Pc(i8*) #3

declare dso_local void @_Z19for_loop_talkad7420v() #3

; Function Attrs: noinline optnone uwtable
define linkonce_odr dso_local i32 @_Z5tmainIicLi1ELi0EET_S0_PPT0_(i32 %0, i8** %1) #4 comdat !dbg !263 {
  %3 = alloca i32, align 4
  %4 = alloca i8**, align 8
  %5 = alloca i32, align 4
  %6 = alloca i32, align 4
  %7 = alloca i32, align 4
  %8 = alloca i32, align 4
  %9 = alloca i32, align 4
  %10 = alloca i32, align 4
  %11 = alloca i32, align 4
  %12 = alloca i32, align 4
  %13 = alloca i32, align 4
  %14 = alloca i32, align 4
  %15 = alloca i32, align 4
  %16 = alloca i32, align 4
  store i32 %0, i32* %3, align 4
  call void @llvm.dbg.declare(metadata i32* %3, metadata !269, metadata !DIExpression()), !dbg !270
  store i8** %1, i8*** %4, align 8
  call void @llvm.dbg.declare(metadata i8*** %4, metadata !271, metadata !DIExpression()), !dbg !272
  call void @_Z25omp_for_pragma_talkad7420Pc(i8* getelementptr inbounds ([52 x i8], [52 x i8]* @.str, i64 0, i64 0)), !dbg !273
  call void @_Z19for_loop_talkad7420v(), !dbg !274
  call void @llvm.dbg.declare(metadata i32* %5, metadata !275, metadata !DIExpression()), !dbg !277
  store i32 0, i32* %5, align 4, !dbg !277
  br label %17, !dbg !278

17:                                               ; preds = %46, %2
  %18 = load i32, i32* %5, align 4, !dbg !279
  %19 = icmp slt i32 %18, 1, !dbg !281
  br i1 %19, label %20, label %49, !dbg !282

20:                                               ; preds = %17
  %21 = load i8**, i8*** %4, align 8, !dbg !283
  %22 = getelementptr inbounds i8*, i8** %21, i64 0, !dbg !283
  %23 = load i8*, i8** %22, align 8, !dbg !283
  %24 = load i32, i32* %5, align 4, !dbg !285
  %25 = sext i32 %24 to i64, !dbg !283
  %26 = getelementptr inbounds i8, i8* %23, i64 %25, !dbg !283
  %27 = load i8, i8* %26, align 1, !dbg !283
  %28 = sext i8 %27 to i32, !dbg !283
  %29 = load i8**, i8*** %4, align 8, !dbg !286
  %30 = getelementptr inbounds i8*, i8** %29, i64 0, !dbg !286
  %31 = load i8*, i8** %30, align 8, !dbg !286
  %32 = load i32, i32* %5, align 4, !dbg !287
  %33 = sub nsw i32 %32, 0, !dbg !288
  %34 = sext i32 %33 to i64, !dbg !286
  %35 = getelementptr inbounds i8, i8* %31, i64 %34, !dbg !286
  %36 = load i8, i8* %35, align 1, !dbg !286
  %37 = sext i8 %36 to i32, !dbg !286
  %38 = sub nsw i32 %28, %37, !dbg !289
  %39 = trunc i32 %38 to i8, !dbg !283
  %40 = load i8**, i8*** %4, align 8, !dbg !290
  %41 = getelementptr inbounds i8*, i8** %40, i64 0, !dbg !290
  %42 = load i8*, i8** %41, align 8, !dbg !290
  %43 = load i32, i32* %5, align 4, !dbg !291
  %44 = sext i32 %43 to i64, !dbg !290
  %45 = getelementptr inbounds i8, i8* %42, i64 %44, !dbg !290
  store i8 %39, i8* %45, align 1, !dbg !292
  br label %46, !dbg !293

46:                                               ; preds = %20
  %47 = load i32, i32* %5, align 4, !dbg !294
  %48 = add nsw i32 %47, 1, !dbg !294
  store i32 %48, i32* %5, align 4, !dbg !294
  br label %17, !dbg !295, !llvm.loop !296

49:                                               ; preds = %17
  call void @_Z25omp_for_pragma_talkad7420Pc(i8* getelementptr inbounds ([54 x i8], [54 x i8]* @.str.1, i64 0, i64 0)), !dbg !298
  call void @_Z19for_loop_talkad7420v(), !dbg !299
  call void @llvm.dbg.declare(metadata i32* %6, metadata !300, metadata !DIExpression()), !dbg !302
  store i32 0, i32* %6, align 4, !dbg !302
  br label %50, !dbg !303

50:                                               ; preds = %79, %49
  %51 = load i32, i32* %6, align 4, !dbg !304
  %52 = icmp slt i32 %51, 1, !dbg !306
  br i1 %52, label %53, label %82, !dbg !307

53:                                               ; preds = %50
  %54 = load i8**, i8*** %4, align 8, !dbg !308
  %55 = getelementptr inbounds i8*, i8** %54, i64 0, !dbg !308
  %56 = load i8*, i8** %55, align 8, !dbg !308
  %57 = load i32, i32* %6, align 4, !dbg !310
  %58 = sext i32 %57 to i64, !dbg !308
  %59 = getelementptr inbounds i8, i8* %56, i64 %58, !dbg !308
  %60 = load i8, i8* %59, align 1, !dbg !308
  %61 = sext i8 %60 to i32, !dbg !308
  %62 = load i8**, i8*** %4, align 8, !dbg !311
  %63 = getelementptr inbounds i8*, i8** %62, i64 0, !dbg !311
  %64 = load i8*, i8** %63, align 8, !dbg !311
  %65 = load i32, i32* %6, align 4, !dbg !312
  %66 = sub nsw i32 %65, 0, !dbg !313
  %67 = sext i32 %66 to i64, !dbg !311
  %68 = getelementptr inbounds i8, i8* %64, i64 %67, !dbg !311
  %69 = load i8, i8* %68, align 1, !dbg !311
  %70 = sext i8 %69 to i32, !dbg !311
  %71 = sub nsw i32 %61, %70, !dbg !314
  %72 = trunc i32 %71 to i8, !dbg !308
  %73 = load i8**, i8*** %4, align 8, !dbg !315
  %74 = getelementptr inbounds i8*, i8** %73, i64 0, !dbg !315
  %75 = load i8*, i8** %74, align 8, !dbg !315
  %76 = load i32, i32* %6, align 4, !dbg !316
  %77 = sext i32 %76 to i64, !dbg !315
  %78 = getelementptr inbounds i8, i8* %75, i64 %77, !dbg !315
  store i8 %72, i8* %78, align 1, !dbg !317
  br label %79, !dbg !318

79:                                               ; preds = %53
  %80 = load i32, i32* %6, align 4, !dbg !319
  %81 = add nsw i32 %80, 1, !dbg !319
  store i32 %81, i32* %6, align 4, !dbg !319
  br label %50, !dbg !320, !llvm.loop !321

82:                                               ; preds = %50
  call void @_Z25omp_for_pragma_talkad7420Pc(i8* getelementptr inbounds ([55 x i8], [55 x i8]* @.str.2, i64 0, i64 0)), !dbg !323
  call void @_Z19for_loop_talkad7420v(), !dbg !324
  call void @llvm.dbg.declare(metadata i32* %7, metadata !325, metadata !DIExpression()), !dbg !327
  store i32 0, i32* %7, align 4, !dbg !327
  br label %83, !dbg !328

83:                                               ; preds = %112, %82
  %84 = load i32, i32* %7, align 4, !dbg !329
  %85 = icmp slt i32 %84, 1, !dbg !331
  br i1 %85, label %86, label %115, !dbg !332

86:                                               ; preds = %83
  %87 = load i8**, i8*** %4, align 8, !dbg !333
  %88 = getelementptr inbounds i8*, i8** %87, i64 0, !dbg !333
  %89 = load i8*, i8** %88, align 8, !dbg !333
  %90 = load i32, i32* %7, align 4, !dbg !335
  %91 = sext i32 %90 to i64, !dbg !333
  %92 = getelementptr inbounds i8, i8* %89, i64 %91, !dbg !333
  %93 = load i8, i8* %92, align 1, !dbg !333
  %94 = sext i8 %93 to i32, !dbg !333
  %95 = load i8**, i8*** %4, align 8, !dbg !336
  %96 = getelementptr inbounds i8*, i8** %95, i64 0, !dbg !336
  %97 = load i8*, i8** %96, align 8, !dbg !336
  %98 = load i32, i32* %7, align 4, !dbg !337
  %99 = sub nsw i32 %98, 0, !dbg !338
  %100 = sext i32 %99 to i64, !dbg !336
  %101 = getelementptr inbounds i8, i8* %97, i64 %100, !dbg !336
  %102 = load i8, i8* %101, align 1, !dbg !336
  %103 = sext i8 %102 to i32, !dbg !336
  %104 = sub nsw i32 %94, %103, !dbg !339
  %105 = trunc i32 %104 to i8, !dbg !333
  %106 = load i8**, i8*** %4, align 8, !dbg !340
  %107 = getelementptr inbounds i8*, i8** %106, i64 0, !dbg !340
  %108 = load i8*, i8** %107, align 8, !dbg !340
  %109 = load i32, i32* %7, align 4, !dbg !341
  %110 = sext i32 %109 to i64, !dbg !340
  %111 = getelementptr inbounds i8, i8* %108, i64 %110, !dbg !340
  store i8 %105, i8* %111, align 1, !dbg !342
  br label %112, !dbg !343

112:                                              ; preds = %86
  %113 = load i32, i32* %7, align 4, !dbg !344
  %114 = add nsw i32 %113, 1, !dbg !344
  store i32 %114, i32* %7, align 4, !dbg !344
  br label %83, !dbg !345, !llvm.loop !346

115:                                              ; preds = %83
  call void @_Z25omp_for_pragma_talkad7420Pc(i8* getelementptr inbounds ([58 x i8], [58 x i8]* @.str.11, i64 0, i64 0)), !dbg !348
  call void @_Z19for_loop_talkad7420v(), !dbg !349
  call void @llvm.dbg.declare(metadata i32* %8, metadata !350, metadata !DIExpression()), !dbg !352
  store i32 0, i32* %8, align 4, !dbg !352
  br label %116, !dbg !353

116:                                              ; preds = %145, %115
  %117 = load i32, i32* %8, align 4, !dbg !354
  %118 = icmp slt i32 %117, 1, !dbg !356
  br i1 %118, label %119, label %148, !dbg !357

119:                                              ; preds = %116
  %120 = load i8**, i8*** %4, align 8, !dbg !358
  %121 = getelementptr inbounds i8*, i8** %120, i64 0, !dbg !358
  %122 = load i8*, i8** %121, align 8, !dbg !358
  %123 = load i32, i32* %8, align 4, !dbg !360
  %124 = sext i32 %123 to i64, !dbg !358
  %125 = getelementptr inbounds i8, i8* %122, i64 %124, !dbg !358
  %126 = load i8, i8* %125, align 1, !dbg !358
  %127 = sext i8 %126 to i32, !dbg !358
  %128 = load i8**, i8*** %4, align 8, !dbg !361
  %129 = getelementptr inbounds i8*, i8** %128, i64 0, !dbg !361
  %130 = load i8*, i8** %129, align 8, !dbg !361
  %131 = load i32, i32* %8, align 4, !dbg !362
  %132 = sub nsw i32 %131, 0, !dbg !363
  %133 = sext i32 %132 to i64, !dbg !361
  %134 = getelementptr inbounds i8, i8* %130, i64 %133, !dbg !361
  %135 = load i8, i8* %134, align 1, !dbg !361
  %136 = sext i8 %135 to i32, !dbg !361
  %137 = sub nsw i32 %127, %136, !dbg !364
  %138 = trunc i32 %137 to i8, !dbg !358
  %139 = load i8**, i8*** %4, align 8, !dbg !365
  %140 = getelementptr inbounds i8*, i8** %139, i64 0, !dbg !365
  %141 = load i8*, i8** %140, align 8, !dbg !365
  %142 = load i32, i32* %8, align 4, !dbg !366
  %143 = sext i32 %142 to i64, !dbg !365
  %144 = getelementptr inbounds i8, i8* %141, i64 %143, !dbg !365
  store i8 %138, i8* %144, align 1, !dbg !367
  br label %145, !dbg !368

145:                                              ; preds = %119
  %146 = load i32, i32* %8, align 4, !dbg !369
  %147 = add nsw i32 %146, 1, !dbg !369
  store i32 %147, i32* %8, align 4, !dbg !369
  br label %116, !dbg !370, !llvm.loop !371

148:                                              ; preds = %116
  call void @_Z25omp_for_pragma_talkad7420Pc(i8* getelementptr inbounds ([56 x i8], [56 x i8]* @.str.12, i64 0, i64 0)), !dbg !373
  call void @_Z19for_loop_talkad7420v(), !dbg !374
  call void @llvm.dbg.declare(metadata i32* %9, metadata !375, metadata !DIExpression()), !dbg !377
  store i32 0, i32* %9, align 4, !dbg !377
  br label %149, !dbg !378

149:                                              ; preds = %178, %148
  %150 = load i32, i32* %9, align 4, !dbg !379
  %151 = icmp slt i32 %150, 1, !dbg !381
  br i1 %151, label %152, label %181, !dbg !382

152:                                              ; preds = %149
  %153 = load i8**, i8*** %4, align 8, !dbg !383
  %154 = getelementptr inbounds i8*, i8** %153, i64 0, !dbg !383
  %155 = load i8*, i8** %154, align 8, !dbg !383
  %156 = load i32, i32* %9, align 4, !dbg !385
  %157 = sext i32 %156 to i64, !dbg !383
  %158 = getelementptr inbounds i8, i8* %155, i64 %157, !dbg !383
  %159 = load i8, i8* %158, align 1, !dbg !383
  %160 = sext i8 %159 to i32, !dbg !383
  %161 = load i8**, i8*** %4, align 8, !dbg !386
  %162 = getelementptr inbounds i8*, i8** %161, i64 0, !dbg !386
  %163 = load i8*, i8** %162, align 8, !dbg !386
  %164 = load i32, i32* %9, align 4, !dbg !387
  %165 = sub nsw i32 %164, 0, !dbg !388
  %166 = sext i32 %165 to i64, !dbg !386
  %167 = getelementptr inbounds i8, i8* %163, i64 %166, !dbg !386
  %168 = load i8, i8* %167, align 1, !dbg !386
  %169 = sext i8 %168 to i32, !dbg !386
  %170 = sub nsw i32 %160, %169, !dbg !389
  %171 = trunc i32 %170 to i8, !dbg !383
  %172 = load i8**, i8*** %4, align 8, !dbg !390
  %173 = getelementptr inbounds i8*, i8** %172, i64 0, !dbg !390
  %174 = load i8*, i8** %173, align 8, !dbg !390
  %175 = load i32, i32* %9, align 4, !dbg !391
  %176 = sext i32 %175 to i64, !dbg !390
  %177 = getelementptr inbounds i8, i8* %174, i64 %176, !dbg !390
  store i8 %171, i8* %177, align 1, !dbg !392
  br label %178, !dbg !393

178:                                              ; preds = %152
  %179 = load i32, i32* %9, align 4, !dbg !394
  %180 = add nsw i32 %179, 1, !dbg !394
  store i32 %180, i32* %9, align 4, !dbg !394
  br label %149, !dbg !395, !llvm.loop !396

181:                                              ; preds = %149
  call void @_Z25omp_for_pragma_talkad7420Pc(i8* getelementptr inbounds ([57 x i8], [57 x i8]* @.str.13, i64 0, i64 0)), !dbg !398
  call void @_Z19for_loop_talkad7420v(), !dbg !399
  call void @llvm.dbg.declare(metadata i32* %10, metadata !400, metadata !DIExpression()), !dbg !402
  store i32 0, i32* %10, align 4, !dbg !402
  br label %182, !dbg !403

182:                                              ; preds = %211, %181
  %183 = load i32, i32* %10, align 4, !dbg !404
  %184 = icmp slt i32 %183, 1, !dbg !406
  br i1 %184, label %185, label %214, !dbg !407

185:                                              ; preds = %182
  %186 = load i8**, i8*** %4, align 8, !dbg !408
  %187 = getelementptr inbounds i8*, i8** %186, i64 0, !dbg !408
  %188 = load i8*, i8** %187, align 8, !dbg !408
  %189 = load i32, i32* %10, align 4, !dbg !410
  %190 = sext i32 %189 to i64, !dbg !408
  %191 = getelementptr inbounds i8, i8* %188, i64 %190, !dbg !408
  %192 = load i8, i8* %191, align 1, !dbg !408
  %193 = sext i8 %192 to i32, !dbg !408
  %194 = load i8**, i8*** %4, align 8, !dbg !411
  %195 = getelementptr inbounds i8*, i8** %194, i64 0, !dbg !411
  %196 = load i8*, i8** %195, align 8, !dbg !411
  %197 = load i32, i32* %10, align 4, !dbg !412
  %198 = sub nsw i32 %197, 0, !dbg !413
  %199 = sext i32 %198 to i64, !dbg !411
  %200 = getelementptr inbounds i8, i8* %196, i64 %199, !dbg !411
  %201 = load i8, i8* %200, align 1, !dbg !411
  %202 = sext i8 %201 to i32, !dbg !411
  %203 = sub nsw i32 %193, %202, !dbg !414
  %204 = trunc i32 %203 to i8, !dbg !408
  %205 = load i8**, i8*** %4, align 8, !dbg !415
  %206 = getelementptr inbounds i8*, i8** %205, i64 0, !dbg !415
  %207 = load i8*, i8** %206, align 8, !dbg !415
  %208 = load i32, i32* %10, align 4, !dbg !416
  %209 = sext i32 %208 to i64, !dbg !415
  %210 = getelementptr inbounds i8, i8* %207, i64 %209, !dbg !415
  store i8 %204, i8* %210, align 1, !dbg !417
  br label %211, !dbg !418

211:                                              ; preds = %185
  %212 = load i32, i32* %10, align 4, !dbg !419
  %213 = add nsw i32 %212, 1, !dbg !419
  store i32 %213, i32* %10, align 4, !dbg !419
  br label %182, !dbg !420, !llvm.loop !421

214:                                              ; preds = %182
  call void @_Z25omp_for_pragma_talkad7420Pc(i8* getelementptr inbounds ([76 x i8], [76 x i8]* @.str.14, i64 0, i64 0)), !dbg !423
  call void @_Z19for_loop_talkad7420v(), !dbg !424
  call void @llvm.dbg.declare(metadata i32* %11, metadata !425, metadata !DIExpression()), !dbg !427
  store i32 0, i32* %11, align 4, !dbg !427
  br label %215, !dbg !428

215:                                              ; preds = %244, %214
  %216 = load i32, i32* %11, align 4, !dbg !429
  %217 = icmp slt i32 %216, 1, !dbg !431
  br i1 %217, label %218, label %247, !dbg !432

218:                                              ; preds = %215
  %219 = load i8**, i8*** %4, align 8, !dbg !433
  %220 = getelementptr inbounds i8*, i8** %219, i64 0, !dbg !433
  %221 = load i8*, i8** %220, align 8, !dbg !433
  %222 = load i32, i32* %11, align 4, !dbg !435
  %223 = sext i32 %222 to i64, !dbg !433
  %224 = getelementptr inbounds i8, i8* %221, i64 %223, !dbg !433
  %225 = load i8, i8* %224, align 1, !dbg !433
  %226 = sext i8 %225 to i32, !dbg !433
  %227 = load i8**, i8*** %4, align 8, !dbg !436
  %228 = getelementptr inbounds i8*, i8** %227, i64 0, !dbg !436
  %229 = load i8*, i8** %228, align 8, !dbg !436
  %230 = load i32, i32* %11, align 4, !dbg !437
  %231 = sub nsw i32 %230, 0, !dbg !438
  %232 = sext i32 %231 to i64, !dbg !436
  %233 = getelementptr inbounds i8, i8* %229, i64 %232, !dbg !436
  %234 = load i8, i8* %233, align 1, !dbg !436
  %235 = sext i8 %234 to i32, !dbg !436
  %236 = sub nsw i32 %226, %235, !dbg !439
  %237 = trunc i32 %236 to i8, !dbg !433
  %238 = load i8**, i8*** %4, align 8, !dbg !440
  %239 = getelementptr inbounds i8*, i8** %238, i64 0, !dbg !440
  %240 = load i8*, i8** %239, align 8, !dbg !440
  %241 = load i32, i32* %11, align 4, !dbg !441
  %242 = sext i32 %241 to i64, !dbg !440
  %243 = getelementptr inbounds i8, i8* %240, i64 %242, !dbg !440
  store i8 %237, i8* %243, align 1, !dbg !442
  br label %244, !dbg !443

244:                                              ; preds = %218
  %245 = load i32, i32* %11, align 4, !dbg !444
  %246 = add nsw i32 %245, 1, !dbg !444
  store i32 %246, i32* %11, align 4, !dbg !444
  br label %215, !dbg !445, !llvm.loop !446

247:                                              ; preds = %215
  call void @_Z25omp_for_pragma_talkad7420Pc(i8* getelementptr inbounds ([99 x i8], [99 x i8]* @.str.15, i64 0, i64 0)), !dbg !448
  call void @_Z19for_loop_talkad7420v(), !dbg !449
  call void @llvm.dbg.declare(metadata i32* %12, metadata !450, metadata !DIExpression()), !dbg !452
  store i32 0, i32* %12, align 4, !dbg !452
  br label %248, !dbg !453

248:                                              ; preds = %277, %247
  %249 = load i32, i32* %12, align 4, !dbg !454
  %250 = icmp slt i32 %249, 1, !dbg !456
  br i1 %250, label %251, label %280, !dbg !457

251:                                              ; preds = %248
  %252 = load i8**, i8*** %4, align 8, !dbg !458
  %253 = getelementptr inbounds i8*, i8** %252, i64 0, !dbg !458
  %254 = load i8*, i8** %253, align 8, !dbg !458
  %255 = load i32, i32* %12, align 4, !dbg !460
  %256 = sext i32 %255 to i64, !dbg !458
  %257 = getelementptr inbounds i8, i8* %254, i64 %256, !dbg !458
  %258 = load i8, i8* %257, align 1, !dbg !458
  %259 = sext i8 %258 to i32, !dbg !458
  %260 = load i8**, i8*** %4, align 8, !dbg !461
  %261 = getelementptr inbounds i8*, i8** %260, i64 0, !dbg !461
  %262 = load i8*, i8** %261, align 8, !dbg !461
  %263 = load i32, i32* %12, align 4, !dbg !462
  %264 = sub nsw i32 %263, 0, !dbg !463
  %265 = sext i32 %264 to i64, !dbg !461
  %266 = getelementptr inbounds i8, i8* %262, i64 %265, !dbg !461
  %267 = load i8, i8* %266, align 1, !dbg !461
  %268 = sext i8 %267 to i32, !dbg !461
  %269 = sub nsw i32 %259, %268, !dbg !464
  %270 = trunc i32 %269 to i8, !dbg !458
  %271 = load i8**, i8*** %4, align 8, !dbg !465
  %272 = getelementptr inbounds i8*, i8** %271, i64 0, !dbg !465
  %273 = load i8*, i8** %272, align 8, !dbg !465
  %274 = load i32, i32* %12, align 4, !dbg !466
  %275 = sext i32 %274 to i64, !dbg !465
  %276 = getelementptr inbounds i8, i8* %273, i64 %275, !dbg !465
  store i8 %270, i8* %276, align 1, !dbg !467
  br label %277, !dbg !468

277:                                              ; preds = %251
  %278 = load i32, i32* %12, align 4, !dbg !469
  %279 = add nsw i32 %278, 1, !dbg !469
  store i32 %279, i32* %12, align 4, !dbg !469
  br label %248, !dbg !470, !llvm.loop !471

280:                                              ; preds = %248
  call void @_Z19for_loop_talkad7420v(), !dbg !473
  call void @llvm.dbg.declare(metadata i32* %13, metadata !474, metadata !DIExpression()), !dbg !476
  store i32 0, i32* %13, align 4, !dbg !476
  br label %281, !dbg !477

281:                                              ; preds = %310, %280
  %282 = load i32, i32* %13, align 4, !dbg !478
  %283 = icmp slt i32 %282, 1, !dbg !480
  br i1 %283, label %284, label %313, !dbg !481

284:                                              ; preds = %281
  %285 = load i8**, i8*** %4, align 8, !dbg !482
  %286 = getelementptr inbounds i8*, i8** %285, i64 0, !dbg !482
  %287 = load i8*, i8** %286, align 8, !dbg !482
  %288 = load i32, i32* %13, align 4, !dbg !484
  %289 = sext i32 %288 to i64, !dbg !482
  %290 = getelementptr inbounds i8, i8* %287, i64 %289, !dbg !482
  %291 = load i8, i8* %290, align 1, !dbg !482
  %292 = sext i8 %291 to i32, !dbg !482
  %293 = load i8**, i8*** %4, align 8, !dbg !485
  %294 = getelementptr inbounds i8*, i8** %293, i64 0, !dbg !485
  %295 = load i8*, i8** %294, align 8, !dbg !485
  %296 = load i32, i32* %13, align 4, !dbg !486
  %297 = sub nsw i32 %296, 0, !dbg !487
  %298 = sext i32 %297 to i64, !dbg !485
  %299 = getelementptr inbounds i8, i8* %295, i64 %298, !dbg !485
  %300 = load i8, i8* %299, align 1, !dbg !485
  %301 = sext i8 %300 to i32, !dbg !485
  %302 = sub nsw i32 %292, %301, !dbg !488
  %303 = trunc i32 %302 to i8, !dbg !482
  %304 = load i8**, i8*** %4, align 8, !dbg !489
  %305 = getelementptr inbounds i8*, i8** %304, i64 0, !dbg !489
  %306 = load i8*, i8** %305, align 8, !dbg !489
  %307 = load i32, i32* %13, align 4, !dbg !490
  %308 = sext i32 %307 to i64, !dbg !489
  %309 = getelementptr inbounds i8, i8* %306, i64 %308, !dbg !489
  store i8 %303, i8* %309, align 1, !dbg !491
  br label %310, !dbg !492

310:                                              ; preds = %284
  %311 = load i32, i32* %13, align 4, !dbg !493
  %312 = add nsw i32 %311, 1, !dbg !493
  store i32 %312, i32* %13, align 4, !dbg !493
  br label %281, !dbg !494, !llvm.loop !495

313:                                              ; preds = %281
  call void @_Z25omp_for_pragma_talkad7420Pc(i8* getelementptr inbounds ([64 x i8], [64 x i8]* @.str.8, i64 0, i64 0)), !dbg !497
  call void @_Z19for_loop_talkad7420v(), !dbg !498
  call void @llvm.dbg.declare(metadata i32* %14, metadata !499, metadata !DIExpression()), !dbg !501
  store i32 0, i32* %14, align 4, !dbg !501
  br label %314, !dbg !502

314:                                              ; preds = %343, %313
  %315 = load i32, i32* %14, align 4, !dbg !503
  %316 = icmp slt i32 %315, 1, !dbg !505
  br i1 %316, label %317, label %346, !dbg !506

317:                                              ; preds = %314
  %318 = load i8**, i8*** %4, align 8, !dbg !507
  %319 = getelementptr inbounds i8*, i8** %318, i64 0, !dbg !507
  %320 = load i8*, i8** %319, align 8, !dbg !507
  %321 = load i32, i32* %14, align 4, !dbg !509
  %322 = sext i32 %321 to i64, !dbg !507
  %323 = getelementptr inbounds i8, i8* %320, i64 %322, !dbg !507
  %324 = load i8, i8* %323, align 1, !dbg !507
  %325 = sext i8 %324 to i32, !dbg !507
  %326 = load i8**, i8*** %4, align 8, !dbg !510
  %327 = getelementptr inbounds i8*, i8** %326, i64 0, !dbg !510
  %328 = load i8*, i8** %327, align 8, !dbg !510
  %329 = load i32, i32* %14, align 4, !dbg !511
  %330 = sub nsw i32 %329, 0, !dbg !512
  %331 = sext i32 %330 to i64, !dbg !510
  %332 = getelementptr inbounds i8, i8* %328, i64 %331, !dbg !510
  %333 = load i8, i8* %332, align 1, !dbg !510
  %334 = sext i8 %333 to i32, !dbg !510
  %335 = sub nsw i32 %325, %334, !dbg !513
  %336 = trunc i32 %335 to i8, !dbg !507
  %337 = load i8**, i8*** %4, align 8, !dbg !514
  %338 = getelementptr inbounds i8*, i8** %337, i64 0, !dbg !514
  %339 = load i8*, i8** %338, align 8, !dbg !514
  %340 = load i32, i32* %14, align 4, !dbg !515
  %341 = sext i32 %340 to i64, !dbg !514
  %342 = getelementptr inbounds i8, i8* %339, i64 %341, !dbg !514
  store i8 %336, i8* %342, align 1, !dbg !516
  br label %343, !dbg !517

343:                                              ; preds = %317
  %344 = load i32, i32* %14, align 4, !dbg !518
  %345 = add nsw i32 %344, 1, !dbg !518
  store i32 %345, i32* %14, align 4, !dbg !518
  br label %314, !dbg !519, !llvm.loop !520

346:                                              ; preds = %314
  call void @_Z25omp_for_pragma_talkad7420Pc(i8* getelementptr inbounds ([55 x i8], [55 x i8]* @.str.16, i64 0, i64 0)), !dbg !522
  call void @_Z19for_loop_talkad7420v(), !dbg !523
  call void @llvm.dbg.declare(metadata i32* %15, metadata !524, metadata !DIExpression()), !dbg !526
  store i32 0, i32* %15, align 4, !dbg !526
  br label %347, !dbg !527

347:                                              ; preds = %376, %346
  %348 = load i32, i32* %15, align 4, !dbg !528
  %349 = icmp slt i32 %348, 1, !dbg !530
  br i1 %349, label %350, label %379, !dbg !531

350:                                              ; preds = %347
  %351 = load i8**, i8*** %4, align 8, !dbg !532
  %352 = getelementptr inbounds i8*, i8** %351, i64 0, !dbg !532
  %353 = load i8*, i8** %352, align 8, !dbg !532
  %354 = load i32, i32* %15, align 4, !dbg !534
  %355 = sext i32 %354 to i64, !dbg !532
  %356 = getelementptr inbounds i8, i8* %353, i64 %355, !dbg !532
  %357 = load i8, i8* %356, align 1, !dbg !532
  %358 = sext i8 %357 to i32, !dbg !532
  %359 = load i8**, i8*** %4, align 8, !dbg !535
  %360 = getelementptr inbounds i8*, i8** %359, i64 0, !dbg !535
  %361 = load i8*, i8** %360, align 8, !dbg !535
  %362 = load i32, i32* %15, align 4, !dbg !536
  %363 = sub nsw i32 %362, 0, !dbg !537
  %364 = sext i32 %363 to i64, !dbg !535
  %365 = getelementptr inbounds i8, i8* %361, i64 %364, !dbg !535
  %366 = load i8, i8* %365, align 1, !dbg !535
  %367 = sext i8 %366 to i32, !dbg !535
  %368 = sub nsw i32 %358, %367, !dbg !538
  %369 = trunc i32 %368 to i8, !dbg !532
  %370 = load i8**, i8*** %4, align 8, !dbg !539
  %371 = getelementptr inbounds i8*, i8** %370, i64 0, !dbg !539
  %372 = load i8*, i8** %371, align 8, !dbg !539
  %373 = load i32, i32* %15, align 4, !dbg !540
  %374 = sext i32 %373 to i64, !dbg !539
  %375 = getelementptr inbounds i8, i8* %372, i64 %374, !dbg !539
  store i8 %369, i8* %375, align 1, !dbg !541
  br label %376, !dbg !542

376:                                              ; preds = %350
  %377 = load i32, i32* %15, align 4, !dbg !543
  %378 = add nsw i32 %377, 1, !dbg !543
  store i32 %378, i32* %15, align 4, !dbg !543
  br label %347, !dbg !544, !llvm.loop !545

379:                                              ; preds = %347
  call void @_Z25omp_for_pragma_talkad7420Pc(i8* getelementptr inbounds ([56 x i8], [56 x i8]* @.str.17, i64 0, i64 0)), !dbg !547
  call void @_Z19for_loop_talkad7420v(), !dbg !548
  call void @llvm.dbg.declare(metadata i32* %16, metadata !549, metadata !DIExpression()), !dbg !551
  store i32 0, i32* %16, align 4, !dbg !551
  br label %380, !dbg !552

380:                                              ; preds = %409, %379
  %381 = load i32, i32* %16, align 4, !dbg !553
  %382 = icmp slt i32 %381, 1, !dbg !555
  br i1 %382, label %383, label %412, !dbg !556

383:                                              ; preds = %380
  %384 = load i8**, i8*** %4, align 8, !dbg !557
  %385 = getelementptr inbounds i8*, i8** %384, i64 0, !dbg !557
  %386 = load i8*, i8** %385, align 8, !dbg !557
  %387 = load i32, i32* %16, align 4, !dbg !559
  %388 = sext i32 %387 to i64, !dbg !557
  %389 = getelementptr inbounds i8, i8* %386, i64 %388, !dbg !557
  %390 = load i8, i8* %389, align 1, !dbg !557
  %391 = sext i8 %390 to i32, !dbg !557
  %392 = load i8**, i8*** %4, align 8, !dbg !560
  %393 = getelementptr inbounds i8*, i8** %392, i64 0, !dbg !560
  %394 = load i8*, i8** %393, align 8, !dbg !560
  %395 = load i32, i32* %16, align 4, !dbg !561
  %396 = sub nsw i32 %395, 0, !dbg !562
  %397 = sext i32 %396 to i64, !dbg !560
  %398 = getelementptr inbounds i8, i8* %394, i64 %397, !dbg !560
  %399 = load i8, i8* %398, align 1, !dbg !560
  %400 = sext i8 %399 to i32, !dbg !560
  %401 = sub nsw i32 %391, %400, !dbg !563
  %402 = trunc i32 %401 to i8, !dbg !557
  %403 = load i8**, i8*** %4, align 8, !dbg !564
  %404 = getelementptr inbounds i8*, i8** %403, i64 0, !dbg !564
  %405 = load i8*, i8** %404, align 8, !dbg !564
  %406 = load i32, i32* %16, align 4, !dbg !565
  %407 = sext i32 %406 to i64, !dbg !564
  %408 = getelementptr inbounds i8, i8* %405, i64 %407, !dbg !564
  store i8 %402, i8* %408, align 1, !dbg !566
  br label %409, !dbg !567

409:                                              ; preds = %383
  %410 = load i32, i32* %16, align 4, !dbg !568
  %411 = add nsw i32 %410, 1, !dbg !568
  store i32 %411, i32* %16, align 4, !dbg !568
  br label %380, !dbg !569, !llvm.loop !570

412:                                              ; preds = %380
  call void @_Z25omp_for_pragma_talkad7420Pc(i8* getelementptr inbounds ([56 x i8], [56 x i8]* @.str.10, i64 0, i64 0)), !dbg !572
  call void @_Z3foov(), !dbg !573
  %413 = load i32, i32* %3, align 4, !dbg !574
  ret i32 %413, !dbg !575
}

attributes #0 = { noinline nounwind optnone uwtable "correctly-rounded-divide-sqrt-fp-math"="false" "disable-tail-calls"="false" "frame-pointer"="all" "less-precise-fpmad"="false" "min-legal-vector-width"="0" "no-infs-fp-math"="false" "no-jump-tables"="false" "no-nans-fp-math"="false" "no-signed-zeros-fp-math"="false" "no-trapping-math"="false" "stack-protector-buffer-size"="8" "target-cpu"="x86-64" "target-features"="+cx8,+fxsr,+mmx,+sse,+sse2,+x87" "unsafe-fp-math"="false" "use-soft-float"="false" }
attributes #1 = { nounwind readnone speculatable willreturn }
attributes #2 = { noinline norecurse optnone uwtable "correctly-rounded-divide-sqrt-fp-math"="false" "disable-tail-calls"="false" "frame-pointer"="all" "less-precise-fpmad"="false" "min-legal-vector-width"="0" "no-infs-fp-math"="false" "no-jump-tables"="false" "no-nans-fp-math"="false" "no-signed-zeros-fp-math"="false" "no-trapping-math"="false" "stack-protector-buffer-size"="8" "target-cpu"="x86-64" "target-features"="+cx8,+fxsr,+mmx,+sse,+sse2,+x87" "unsafe-fp-math"="false" "use-soft-float"="false" }
attributes #3 = { "correctly-rounded-divide-sqrt-fp-math"="false" "disable-tail-calls"="false" "frame-pointer"="all" "less-precise-fpmad"="false" "no-infs-fp-math"="false" "no-nans-fp-math"="false" "no-signed-zeros-fp-math"="false" "no-trapping-math"="false" "stack-protector-buffer-size"="8" "target-cpu"="x86-64" "target-features"="+cx8,+fxsr,+mmx,+sse,+sse2,+x87" "unsafe-fp-math"="false" "use-soft-float"="false" }
attributes #4 = { noinline optnone uwtable "correctly-rounded-divide-sqrt-fp-math"="false" "disable-tail-calls"="false" "frame-pointer"="all" "less-precise-fpmad"="false" "min-legal-vector-width"="0" "no-infs-fp-math"="false" "no-jump-tables"="false" "no-nans-fp-math"="false" "no-signed-zeros-fp-math"="false" "no-trapping-math"="false" "stack-protector-buffer-size"="8" "target-cpu"="x86-64" "target-features"="+cx8,+fxsr,+mmx,+sse,+sse2,+x87" "unsafe-fp-math"="false" "use-soft-float"="false" }

!llvm.dbg.cu = !{!0}
!llvm.module.flags = !{!3, !4, !5}
!llvm.ident = !{!6}

!0 = distinct !DICompileUnit(language: DW_LANG_C_plus_plus_14, file: !1, producer: "clang version 10.0.0-4ubuntu1 ", isOptimized: false, runtimeVersion: 0, emissionKind: FullDebug, enums: !2, splitDebugInlining: false, nameTableKind: None)
!1 = !DIFile(filename: "teams_distribute_parallel_for_collapse_messages.cpp", directory: "/home/talkad/OpenMPdb/temp/DebasmitaBasu/custom-OpenMP-directives/clang/test/OpenMP")
!2 = !{}
!3 = !{i32 7, !"Dwarf Version", i32 4}
!4 = !{i32 2, !"Debug Info Version", i32 3}
!5 = !{i32 1, !"wchar_size", i32 4}
!6 = !{!"clang version 10.0.0-4ubuntu1 "}
!7 = distinct !DISubprogram(name: "foo", linkageName: "_Z3foov", scope: !1, file: !1, line: 4, type: !8, scopeLine: 4, flags: DIFlagPrototyped, spFlags: DISPFlagDefinition, unit: !0, retainedNodes: !2)
!8 = !DISubroutineType(types: !9)
!9 = !{null}
!10 = !DILocation(line: 5, column: 1, scope: !7)
!11 = distinct !DISubprogram(name: "foobool", linkageName: "_Z7foobooli", scope: !1, file: !1, line: 8, type: !12, scopeLine: 8, flags: DIFlagPrototyped, spFlags: DISPFlagDefinition, unit: !0, retainedNodes: !2)
!12 = !DISubroutineType(types: !13)
!13 = !{!14, !15}
!14 = !DIBasicType(name: "bool", size: 8, encoding: DW_ATE_boolean)
!15 = !DIBasicType(name: "int", size: 32, encoding: DW_ATE_signed)
!16 = !DILocalVariable(name: "argc", arg: 1, scope: !11, file: !1, line: 8, type: !15)
!17 = !DILocation(line: 8, column: 18, scope: !11)
!18 = !DILocation(line: 9, column: 10, scope: !11)
!19 = !DILocation(line: 9, column: 3, scope: !11)
!20 = distinct !DISubprogram(name: "main", scope: !1, file: !1, line: 107, type: !21, scopeLine: 107, flags: DIFlagPrototyped, spFlags: DISPFlagDefinition, unit: !0, retainedNodes: !2)
!21 = !DISubroutineType(types: !22)
!22 = !{!15, !15, !23}
!23 = !DIDerivedType(tag: DW_TAG_pointer_type, baseType: !24, size: 64)
!24 = !DIDerivedType(tag: DW_TAG_pointer_type, baseType: !25, size: 64)
!25 = !DIBasicType(name: "char", size: 8, encoding: DW_ATE_signed_char)
!26 = !DILocalVariable(name: "argc", arg: 1, scope: !20, file: !1, line: 107, type: !15)
!27 = !DILocation(line: 107, column: 14, scope: !20)
!28 = !DILocalVariable(name: "argv", arg: 2, scope: !20, file: !1, line: 107, type: !23)
!29 = !DILocation(line: 107, column: 27, scope: !20)
!30 = !DILocation(line: 109, column: 1, scope: !20)
!31 = !DILocation(line: 110, column: 1, scope: !20)
!32 = !DILocalVariable(name: "i", scope: !33, file: !1, line: 111, type: !15)
!33 = distinct !DILexicalBlock(scope: !20, file: !1, line: 111, column: 3)
!34 = !DILocation(line: 111, column: 12, scope: !33)
!35 = !DILocation(line: 111, column: 8, scope: !33)
!36 = !DILocation(line: 111, column: 19, scope: !37)
!37 = distinct !DILexicalBlock(scope: !33, file: !1, line: 111, column: 3)
!38 = !DILocation(line: 111, column: 21, scope: !37)
!39 = !DILocation(line: 111, column: 3, scope: !33)
!40 = !DILocation(line: 113, column: 18, scope: !41)
!41 = distinct !DILexicalBlock(scope: !37, file: !1, line: 112, column: 1)
!42 = !DILocation(line: 113, column: 26, scope: !41)
!43 = !DILocation(line: 113, column: 31, scope: !41)
!44 = !DILocation(line: 113, column: 39, scope: !41)
!45 = !DILocation(line: 113, column: 40, scope: !41)
!46 = !DILocation(line: 113, column: 29, scope: !41)
!47 = !DILocation(line: 113, column: 5, scope: !41)
!48 = !DILocation(line: 113, column: 13, scope: !41)
!49 = !DILocation(line: 113, column: 16, scope: !41)
!50 = !DILocation(line: 114, column: 1, scope: !41)
!51 = !DILocation(line: 111, column: 28, scope: !37)
!52 = !DILocation(line: 111, column: 3, scope: !37)
!53 = distinct !{!53, !39, !54}
!54 = !DILocation(line: 114, column: 1, scope: !33)
!55 = !DILocation(line: 116, column: 1, scope: !20)
!56 = !DILocation(line: 117, column: 1, scope: !20)
!57 = !DILocalVariable(name: "i", scope: !58, file: !1, line: 118, type: !15)
!58 = distinct !DILexicalBlock(scope: !20, file: !1, line: 118, column: 3)
!59 = !DILocation(line: 118, column: 12, scope: !58)
!60 = !DILocation(line: 118, column: 8, scope: !58)
!61 = !DILocation(line: 118, column: 19, scope: !62)
!62 = distinct !DILexicalBlock(scope: !58, file: !1, line: 118, column: 3)
!63 = !DILocation(line: 118, column: 21, scope: !62)
!64 = !DILocation(line: 118, column: 3, scope: !58)
!65 = !DILocation(line: 120, column: 18, scope: !66)
!66 = distinct !DILexicalBlock(scope: !62, file: !1, line: 119, column: 1)
!67 = !DILocation(line: 120, column: 26, scope: !66)
!68 = !DILocation(line: 120, column: 31, scope: !66)
!69 = !DILocation(line: 120, column: 39, scope: !66)
!70 = !DILocation(line: 120, column: 40, scope: !66)
!71 = !DILocation(line: 120, column: 29, scope: !66)
!72 = !DILocation(line: 120, column: 5, scope: !66)
!73 = !DILocation(line: 120, column: 13, scope: !66)
!74 = !DILocation(line: 120, column: 16, scope: !66)
!75 = !DILocation(line: 121, column: 1, scope: !66)
!76 = !DILocation(line: 118, column: 28, scope: !62)
!77 = !DILocation(line: 118, column: 3, scope: !62)
!78 = distinct !{!78, !64, !79}
!79 = !DILocation(line: 121, column: 1, scope: !58)
!80 = !DILocation(line: 123, column: 1, scope: !20)
!81 = !DILocation(line: 124, column: 1, scope: !20)
!82 = !DILocalVariable(name: "i", scope: !83, file: !1, line: 125, type: !15)
!83 = distinct !DILexicalBlock(scope: !20, file: !1, line: 125, column: 3)
!84 = !DILocation(line: 125, column: 12, scope: !83)
!85 = !DILocation(line: 125, column: 8, scope: !83)
!86 = !DILocation(line: 125, column: 19, scope: !87)
!87 = distinct !DILexicalBlock(scope: !83, file: !1, line: 125, column: 3)
!88 = !DILocation(line: 125, column: 21, scope: !87)
!89 = !DILocation(line: 125, column: 3, scope: !83)
!90 = !DILocation(line: 127, column: 18, scope: !91)
!91 = distinct !DILexicalBlock(scope: !87, file: !1, line: 126, column: 1)
!92 = !DILocation(line: 127, column: 26, scope: !91)
!93 = !DILocation(line: 127, column: 31, scope: !91)
!94 = !DILocation(line: 127, column: 39, scope: !91)
!95 = !DILocation(line: 127, column: 40, scope: !91)
!96 = !DILocation(line: 127, column: 29, scope: !91)
!97 = !DILocation(line: 127, column: 5, scope: !91)
!98 = !DILocation(line: 127, column: 13, scope: !91)
!99 = !DILocation(line: 127, column: 16, scope: !91)
!100 = !DILocation(line: 128, column: 1, scope: !91)
!101 = !DILocation(line: 125, column: 28, scope: !87)
!102 = !DILocation(line: 125, column: 3, scope: !87)
!103 = distinct !{!103, !89, !104}
!104 = !DILocation(line: 128, column: 1, scope: !83)
!105 = !DILocation(line: 130, column: 1, scope: !20)
!106 = !DILocation(line: 131, column: 1, scope: !20)
!107 = !DILocalVariable(name: "i", scope: !108, file: !1, line: 132, type: !15)
!108 = distinct !DILexicalBlock(scope: !20, file: !1, line: 132, column: 3)
!109 = !DILocation(line: 132, column: 12, scope: !108)
!110 = !DILocation(line: 132, column: 8, scope: !108)
!111 = !DILocation(line: 132, column: 19, scope: !112)
!112 = distinct !DILexicalBlock(scope: !108, file: !1, line: 132, column: 3)
!113 = !DILocation(line: 132, column: 21, scope: !112)
!114 = !DILocation(line: 132, column: 3, scope: !108)
!115 = !DILocation(line: 134, column: 18, scope: !116)
!116 = distinct !DILexicalBlock(scope: !112, file: !1, line: 133, column: 1)
!117 = !DILocation(line: 134, column: 26, scope: !116)
!118 = !DILocation(line: 134, column: 31, scope: !116)
!119 = !DILocation(line: 134, column: 39, scope: !116)
!120 = !DILocation(line: 134, column: 40, scope: !116)
!121 = !DILocation(line: 134, column: 29, scope: !116)
!122 = !DILocation(line: 134, column: 5, scope: !116)
!123 = !DILocation(line: 134, column: 13, scope: !116)
!124 = !DILocation(line: 134, column: 16, scope: !116)
!125 = !DILocation(line: 135, column: 1, scope: !116)
!126 = !DILocation(line: 132, column: 28, scope: !112)
!127 = !DILocation(line: 132, column: 3, scope: !112)
!128 = distinct !{!128, !114, !129}
!129 = !DILocation(line: 135, column: 1, scope: !108)
!130 = !DILocation(line: 137, column: 1, scope: !20)
!131 = !DILocation(line: 138, column: 1, scope: !20)
!132 = !DILocalVariable(name: "i", scope: !133, file: !1, line: 139, type: !15)
!133 = distinct !DILexicalBlock(scope: !20, file: !1, line: 139, column: 3)
!134 = !DILocation(line: 139, column: 12, scope: !133)
!135 = !DILocation(line: 139, column: 8, scope: !133)
!136 = !DILocation(line: 139, column: 19, scope: !137)
!137 = distinct !DILexicalBlock(scope: !133, file: !1, line: 139, column: 3)
!138 = !DILocation(line: 139, column: 21, scope: !137)
!139 = !DILocation(line: 139, column: 3, scope: !133)
!140 = !DILocation(line: 141, column: 18, scope: !141)
!141 = distinct !DILexicalBlock(scope: !137, file: !1, line: 140, column: 1)
!142 = !DILocation(line: 141, column: 26, scope: !141)
!143 = !DILocation(line: 141, column: 31, scope: !141)
!144 = !DILocation(line: 141, column: 39, scope: !141)
!145 = !DILocation(line: 141, column: 40, scope: !141)
!146 = !DILocation(line: 141, column: 29, scope: !141)
!147 = !DILocation(line: 141, column: 5, scope: !141)
!148 = !DILocation(line: 141, column: 13, scope: !141)
!149 = !DILocation(line: 141, column: 16, scope: !141)
!150 = !DILocation(line: 142, column: 1, scope: !141)
!151 = !DILocation(line: 139, column: 28, scope: !137)
!152 = !DILocation(line: 139, column: 3, scope: !137)
!153 = distinct !{!153, !139, !154}
!154 = !DILocation(line: 142, column: 1, scope: !133)
!155 = !DILocation(line: 146, column: 1, scope: !20)
!156 = !DILocation(line: 147, column: 1, scope: !20)
!157 = !DILocalVariable(name: "i", scope: !158, file: !1, line: 148, type: !15)
!158 = distinct !DILexicalBlock(scope: !20, file: !1, line: 148, column: 3)
!159 = !DILocation(line: 148, column: 12, scope: !158)
!160 = !DILocation(line: 148, column: 8, scope: !158)
!161 = !DILocation(line: 148, column: 19, scope: !162)
!162 = distinct !DILexicalBlock(scope: !158, file: !1, line: 148, column: 3)
!163 = !DILocation(line: 148, column: 21, scope: !162)
!164 = !DILocation(line: 148, column: 3, scope: !158)
!165 = !DILocation(line: 150, column: 18, scope: !166)
!166 = distinct !DILexicalBlock(scope: !162, file: !1, line: 149, column: 1)
!167 = !DILocation(line: 150, column: 26, scope: !166)
!168 = !DILocation(line: 150, column: 31, scope: !166)
!169 = !DILocation(line: 150, column: 39, scope: !166)
!170 = !DILocation(line: 150, column: 40, scope: !166)
!171 = !DILocation(line: 150, column: 29, scope: !166)
!172 = !DILocation(line: 150, column: 5, scope: !166)
!173 = !DILocation(line: 150, column: 13, scope: !166)
!174 = !DILocation(line: 150, column: 16, scope: !166)
!175 = !DILocation(line: 151, column: 1, scope: !166)
!176 = !DILocation(line: 148, column: 28, scope: !162)
!177 = !DILocation(line: 148, column: 3, scope: !162)
!178 = distinct !{!178, !164, !179}
!179 = !DILocation(line: 151, column: 1, scope: !158)
!180 = !DILocation(line: 155, column: 1, scope: !20)
!181 = !DILocation(line: 156, column: 1, scope: !20)
!182 = !DILocalVariable(name: "i", scope: !183, file: !1, line: 157, type: !15)
!183 = distinct !DILexicalBlock(scope: !20, file: !1, line: 157, column: 3)
!184 = !DILocation(line: 157, column: 12, scope: !183)
!185 = !DILocation(line: 157, column: 8, scope: !183)
!186 = !DILocation(line: 157, column: 19, scope: !187)
!187 = distinct !DILexicalBlock(scope: !183, file: !1, line: 157, column: 3)
!188 = !DILocation(line: 157, column: 21, scope: !187)
!189 = !DILocation(line: 157, column: 3, scope: !183)
!190 = !DILocation(line: 159, column: 18, scope: !191)
!191 = distinct !DILexicalBlock(scope: !187, file: !1, line: 158, column: 1)
!192 = !DILocation(line: 159, column: 26, scope: !191)
!193 = !DILocation(line: 159, column: 31, scope: !191)
!194 = !DILocation(line: 159, column: 39, scope: !191)
!195 = !DILocation(line: 159, column: 40, scope: !191)
!196 = !DILocation(line: 159, column: 29, scope: !191)
!197 = !DILocation(line: 159, column: 5, scope: !191)
!198 = !DILocation(line: 159, column: 13, scope: !191)
!199 = !DILocation(line: 159, column: 16, scope: !191)
!200 = !DILocation(line: 160, column: 1, scope: !191)
!201 = !DILocation(line: 157, column: 28, scope: !187)
!202 = !DILocation(line: 157, column: 3, scope: !187)
!203 = distinct !{!203, !189, !204}
!204 = !DILocation(line: 160, column: 1, scope: !183)
!205 = !DILocation(line: 162, column: 1, scope: !20)
!206 = !DILocation(line: 163, column: 1, scope: !20)
!207 = !DILocalVariable(name: "i", scope: !208, file: !1, line: 164, type: !15)
!208 = distinct !DILexicalBlock(scope: !20, file: !1, line: 164, column: 3)
!209 = !DILocation(line: 164, column: 12, scope: !208)
!210 = !DILocation(line: 164, column: 8, scope: !208)
!211 = !DILocation(line: 164, column: 19, scope: !212)
!212 = distinct !DILexicalBlock(scope: !208, file: !1, line: 164, column: 3)
!213 = !DILocation(line: 164, column: 21, scope: !212)
!214 = !DILocation(line: 164, column: 3, scope: !208)
!215 = !DILocation(line: 166, column: 18, scope: !216)
!216 = distinct !DILexicalBlock(scope: !212, file: !1, line: 165, column: 1)
!217 = !DILocation(line: 166, column: 26, scope: !216)
!218 = !DILocation(line: 166, column: 31, scope: !216)
!219 = !DILocation(line: 166, column: 39, scope: !216)
!220 = !DILocation(line: 166, column: 40, scope: !216)
!221 = !DILocation(line: 166, column: 29, scope: !216)
!222 = !DILocation(line: 166, column: 5, scope: !216)
!223 = !DILocation(line: 166, column: 13, scope: !216)
!224 = !DILocation(line: 166, column: 16, scope: !216)
!225 = !DILocation(line: 167, column: 1, scope: !216)
!226 = !DILocation(line: 164, column: 28, scope: !212)
!227 = !DILocation(line: 164, column: 3, scope: !212)
!228 = distinct !{!228, !214, !229}
!229 = !DILocation(line: 167, column: 1, scope: !208)
!230 = !DILocation(line: 172, column: 1, scope: !20)
!231 = !DILocation(line: 173, column: 1, scope: !20)
!232 = !DILocalVariable(name: "i", scope: !233, file: !1, line: 174, type: !15)
!233 = distinct !DILexicalBlock(scope: !20, file: !1, line: 174, column: 3)
!234 = !DILocation(line: 174, column: 12, scope: !233)
!235 = !DILocation(line: 174, column: 8, scope: !233)
!236 = !DILocation(line: 174, column: 19, scope: !237)
!237 = distinct !DILexicalBlock(scope: !233, file: !1, line: 174, column: 3)
!238 = !DILocation(line: 174, column: 21, scope: !237)
!239 = !DILocation(line: 174, column: 3, scope: !233)
!240 = !DILocation(line: 176, column: 18, scope: !241)
!241 = distinct !DILexicalBlock(scope: !237, file: !1, line: 175, column: 1)
!242 = !DILocation(line: 176, column: 26, scope: !241)
!243 = !DILocation(line: 176, column: 31, scope: !241)
!244 = !DILocation(line: 176, column: 39, scope: !241)
!245 = !DILocation(line: 176, column: 40, scope: !241)
!246 = !DILocation(line: 176, column: 29, scope: !241)
!247 = !DILocation(line: 176, column: 5, scope: !241)
!248 = !DILocation(line: 176, column: 13, scope: !241)
!249 = !DILocation(line: 176, column: 16, scope: !241)
!250 = !DILocation(line: 177, column: 1, scope: !241)
!251 = !DILocation(line: 174, column: 28, scope: !237)
!252 = !DILocation(line: 174, column: 3, scope: !237)
!253 = distinct !{!253, !239, !254}
!254 = !DILocation(line: 177, column: 1, scope: !233)
!255 = !DILocation(line: 179, column: 1, scope: !20)
!256 = !DILocation(line: 180, column: 3, scope: !20)
!257 = !DILocation(line: 182, column: 1, scope: !20)
!258 = !DILocation(line: 183, column: 3, scope: !20)
!259 = !DILocation(line: 184, column: 33, scope: !20)
!260 = !DILocation(line: 184, column: 39, scope: !20)
!261 = !DILocation(line: 184, column: 10, scope: !20)
!262 = !DILocation(line: 184, column: 3, scope: !20)
!263 = distinct !DISubprogram(name: "tmain<int, char, 1, 0>", linkageName: "_Z5tmainIicLi1ELi0EET_S0_PPT0_", scope: !1, file: !1, line: 13, type: !21, scopeLine: 13, flags: DIFlagPrototyped, spFlags: DISPFlagDefinition, unit: !0, templateParams: !264, retainedNodes: !2)
!264 = !{!265, !266, !267, !268}
!265 = !DITemplateTypeParameter(name: "T", type: !15)
!266 = !DITemplateTypeParameter(name: "S", type: !25)
!267 = !DITemplateValueParameter(name: "N", type: !15, value: i32 1)
!268 = !DITemplateValueParameter(name: "ST", type: !15, value: i32 0)
!269 = !DILocalVariable(name: "argc", arg: 1, scope: !263, file: !1, line: 13, type: !15)
!270 = !DILocation(line: 13, column: 11, scope: !263)
!271 = !DILocalVariable(name: "argv", arg: 2, scope: !263, file: !1, line: 13, type: !23)
!272 = !DILocation(line: 13, column: 21, scope: !263)
!273 = !DILocation(line: 15, column: 1, scope: !263)
!274 = !DILocation(line: 16, column: 1, scope: !263)
!275 = !DILocalVariable(name: "i", scope: !276, file: !1, line: 17, type: !15)
!276 = distinct !DILexicalBlock(scope: !263, file: !1, line: 17, column: 3)
!277 = !DILocation(line: 17, column: 12, scope: !276)
!278 = !DILocation(line: 17, column: 8, scope: !276)
!279 = !DILocation(line: 17, column: 20, scope: !280)
!280 = distinct !DILexicalBlock(scope: !276, file: !1, line: 17, column: 3)
!281 = !DILocation(line: 17, column: 22, scope: !280)
!282 = !DILocation(line: 17, column: 3, scope: !276)
!283 = !DILocation(line: 19, column: 18, scope: !284)
!284 = distinct !DILexicalBlock(scope: !280, file: !1, line: 18, column: 1)
!285 = !DILocation(line: 19, column: 26, scope: !284)
!286 = !DILocation(line: 19, column: 31, scope: !284)
!287 = !DILocation(line: 19, column: 39, scope: !284)
!288 = !DILocation(line: 19, column: 40, scope: !284)
!289 = !DILocation(line: 19, column: 29, scope: !284)
!290 = !DILocation(line: 19, column: 5, scope: !284)
!291 = !DILocation(line: 19, column: 13, scope: !284)
!292 = !DILocation(line: 19, column: 16, scope: !284)
!293 = !DILocation(line: 20, column: 1, scope: !284)
!294 = !DILocation(line: 17, column: 28, scope: !280)
!295 = !DILocation(line: 17, column: 3, scope: !280)
!296 = distinct !{!296, !282, !297}
!297 = !DILocation(line: 20, column: 1, scope: !276)
!298 = !DILocation(line: 22, column: 1, scope: !263)
!299 = !DILocation(line: 23, column: 1, scope: !263)
!300 = !DILocalVariable(name: "i", scope: !301, file: !1, line: 24, type: !15)
!301 = distinct !DILexicalBlock(scope: !263, file: !1, line: 24, column: 3)
!302 = !DILocation(line: 24, column: 12, scope: !301)
!303 = !DILocation(line: 24, column: 8, scope: !301)
!304 = !DILocation(line: 24, column: 20, scope: !305)
!305 = distinct !DILexicalBlock(scope: !301, file: !1, line: 24, column: 3)
!306 = !DILocation(line: 24, column: 22, scope: !305)
!307 = !DILocation(line: 24, column: 3, scope: !301)
!308 = !DILocation(line: 26, column: 18, scope: !309)
!309 = distinct !DILexicalBlock(scope: !305, file: !1, line: 25, column: 1)
!310 = !DILocation(line: 26, column: 26, scope: !309)
!311 = !DILocation(line: 26, column: 31, scope: !309)
!312 = !DILocation(line: 26, column: 39, scope: !309)
!313 = !DILocation(line: 26, column: 40, scope: !309)
!314 = !DILocation(line: 26, column: 29, scope: !309)
!315 = !DILocation(line: 26, column: 5, scope: !309)
!316 = !DILocation(line: 26, column: 13, scope: !309)
!317 = !DILocation(line: 26, column: 16, scope: !309)
!318 = !DILocation(line: 27, column: 1, scope: !309)
!319 = !DILocation(line: 24, column: 28, scope: !305)
!320 = !DILocation(line: 24, column: 3, scope: !305)
!321 = distinct !{!321, !307, !322}
!322 = !DILocation(line: 27, column: 1, scope: !301)
!323 = !DILocation(line: 29, column: 1, scope: !263)
!324 = !DILocation(line: 30, column: 1, scope: !263)
!325 = !DILocalVariable(name: "i", scope: !326, file: !1, line: 31, type: !15)
!326 = distinct !DILexicalBlock(scope: !263, file: !1, line: 31, column: 3)
!327 = !DILocation(line: 31, column: 12, scope: !326)
!328 = !DILocation(line: 31, column: 8, scope: !326)
!329 = !DILocation(line: 31, column: 20, scope: !330)
!330 = distinct !DILexicalBlock(scope: !326, file: !1, line: 31, column: 3)
!331 = !DILocation(line: 31, column: 22, scope: !330)
!332 = !DILocation(line: 31, column: 3, scope: !326)
!333 = !DILocation(line: 33, column: 18, scope: !334)
!334 = distinct !DILexicalBlock(scope: !330, file: !1, line: 32, column: 1)
!335 = !DILocation(line: 33, column: 26, scope: !334)
!336 = !DILocation(line: 33, column: 31, scope: !334)
!337 = !DILocation(line: 33, column: 39, scope: !334)
!338 = !DILocation(line: 33, column: 40, scope: !334)
!339 = !DILocation(line: 33, column: 29, scope: !334)
!340 = !DILocation(line: 33, column: 5, scope: !334)
!341 = !DILocation(line: 33, column: 13, scope: !334)
!342 = !DILocation(line: 33, column: 16, scope: !334)
!343 = !DILocation(line: 34, column: 1, scope: !334)
!344 = !DILocation(line: 31, column: 28, scope: !330)
!345 = !DILocation(line: 31, column: 3, scope: !330)
!346 = distinct !{!346, !332, !347}
!347 = !DILocation(line: 34, column: 1, scope: !326)
!348 = !DILocation(line: 36, column: 1, scope: !263)
!349 = !DILocation(line: 37, column: 1, scope: !263)
!350 = !DILocalVariable(name: "i", scope: !351, file: !1, line: 38, type: !15)
!351 = distinct !DILexicalBlock(scope: !263, file: !1, line: 38, column: 3)
!352 = !DILocation(line: 38, column: 12, scope: !351)
!353 = !DILocation(line: 38, column: 8, scope: !351)
!354 = !DILocation(line: 38, column: 20, scope: !355)
!355 = distinct !DILexicalBlock(scope: !351, file: !1, line: 38, column: 3)
!356 = !DILocation(line: 38, column: 22, scope: !355)
!357 = !DILocation(line: 38, column: 3, scope: !351)
!358 = !DILocation(line: 40, column: 18, scope: !359)
!359 = distinct !DILexicalBlock(scope: !355, file: !1, line: 39, column: 1)
!360 = !DILocation(line: 40, column: 26, scope: !359)
!361 = !DILocation(line: 40, column: 31, scope: !359)
!362 = !DILocation(line: 40, column: 39, scope: !359)
!363 = !DILocation(line: 40, column: 40, scope: !359)
!364 = !DILocation(line: 40, column: 29, scope: !359)
!365 = !DILocation(line: 40, column: 5, scope: !359)
!366 = !DILocation(line: 40, column: 13, scope: !359)
!367 = !DILocation(line: 40, column: 16, scope: !359)
!368 = !DILocation(line: 41, column: 1, scope: !359)
!369 = !DILocation(line: 38, column: 28, scope: !355)
!370 = !DILocation(line: 38, column: 3, scope: !355)
!371 = distinct !{!371, !357, !372}
!372 = !DILocation(line: 41, column: 1, scope: !351)
!373 = !DILocation(line: 43, column: 1, scope: !263)
!374 = !DILocation(line: 44, column: 1, scope: !263)
!375 = !DILocalVariable(name: "i", scope: !376, file: !1, line: 45, type: !15)
!376 = distinct !DILexicalBlock(scope: !263, file: !1, line: 45, column: 3)
!377 = !DILocation(line: 45, column: 12, scope: !376)
!378 = !DILocation(line: 45, column: 8, scope: !376)
!379 = !DILocation(line: 45, column: 20, scope: !380)
!380 = distinct !DILexicalBlock(scope: !376, file: !1, line: 45, column: 3)
!381 = !DILocation(line: 45, column: 22, scope: !380)
!382 = !DILocation(line: 45, column: 3, scope: !376)
!383 = !DILocation(line: 47, column: 18, scope: !384)
!384 = distinct !DILexicalBlock(scope: !380, file: !1, line: 46, column: 1)
!385 = !DILocation(line: 47, column: 26, scope: !384)
!386 = !DILocation(line: 47, column: 31, scope: !384)
!387 = !DILocation(line: 47, column: 39, scope: !384)
!388 = !DILocation(line: 47, column: 40, scope: !384)
!389 = !DILocation(line: 47, column: 29, scope: !384)
!390 = !DILocation(line: 47, column: 5, scope: !384)
!391 = !DILocation(line: 47, column: 13, scope: !384)
!392 = !DILocation(line: 47, column: 16, scope: !384)
!393 = !DILocation(line: 48, column: 1, scope: !384)
!394 = !DILocation(line: 45, column: 28, scope: !380)
!395 = !DILocation(line: 45, column: 3, scope: !380)
!396 = distinct !{!396, !382, !397}
!397 = !DILocation(line: 48, column: 1, scope: !376)
!398 = !DILocation(line: 50, column: 1, scope: !263)
!399 = !DILocation(line: 51, column: 1, scope: !263)
!400 = !DILocalVariable(name: "i", scope: !401, file: !1, line: 52, type: !15)
!401 = distinct !DILexicalBlock(scope: !263, file: !1, line: 52, column: 3)
!402 = !DILocation(line: 52, column: 12, scope: !401)
!403 = !DILocation(line: 52, column: 8, scope: !401)
!404 = !DILocation(line: 52, column: 20, scope: !405)
!405 = distinct !DILexicalBlock(scope: !401, file: !1, line: 52, column: 3)
!406 = !DILocation(line: 52, column: 22, scope: !405)
!407 = !DILocation(line: 52, column: 3, scope: !401)
!408 = !DILocation(line: 54, column: 18, scope: !409)
!409 = distinct !DILexicalBlock(scope: !405, file: !1, line: 53, column: 1)
!410 = !DILocation(line: 54, column: 26, scope: !409)
!411 = !DILocation(line: 54, column: 31, scope: !409)
!412 = !DILocation(line: 54, column: 39, scope: !409)
!413 = !DILocation(line: 54, column: 40, scope: !409)
!414 = !DILocation(line: 54, column: 29, scope: !409)
!415 = !DILocation(line: 54, column: 5, scope: !409)
!416 = !DILocation(line: 54, column: 13, scope: !409)
!417 = !DILocation(line: 54, column: 16, scope: !409)
!418 = !DILocation(line: 55, column: 1, scope: !409)
!419 = !DILocation(line: 52, column: 28, scope: !405)
!420 = !DILocation(line: 52, column: 3, scope: !405)
!421 = distinct !{!421, !407, !422}
!422 = !DILocation(line: 55, column: 1, scope: !401)
!423 = !DILocation(line: 57, column: 1, scope: !263)
!424 = !DILocation(line: 58, column: 1, scope: !263)
!425 = !DILocalVariable(name: "i", scope: !426, file: !1, line: 59, type: !15)
!426 = distinct !DILexicalBlock(scope: !263, file: !1, line: 59, column: 3)
!427 = !DILocation(line: 59, column: 12, scope: !426)
!428 = !DILocation(line: 59, column: 8, scope: !426)
!429 = !DILocation(line: 59, column: 20, scope: !430)
!430 = distinct !DILexicalBlock(scope: !426, file: !1, line: 59, column: 3)
!431 = !DILocation(line: 59, column: 22, scope: !430)
!432 = !DILocation(line: 59, column: 3, scope: !426)
!433 = !DILocation(line: 61, column: 18, scope: !434)
!434 = distinct !DILexicalBlock(scope: !430, file: !1, line: 60, column: 1)
!435 = !DILocation(line: 61, column: 26, scope: !434)
!436 = !DILocation(line: 61, column: 31, scope: !434)
!437 = !DILocation(line: 61, column: 39, scope: !434)
!438 = !DILocation(line: 61, column: 40, scope: !434)
!439 = !DILocation(line: 61, column: 29, scope: !434)
!440 = !DILocation(line: 61, column: 5, scope: !434)
!441 = !DILocation(line: 61, column: 13, scope: !434)
!442 = !DILocation(line: 61, column: 16, scope: !434)
!443 = !DILocation(line: 62, column: 1, scope: !434)
!444 = !DILocation(line: 59, column: 28, scope: !430)
!445 = !DILocation(line: 59, column: 3, scope: !430)
!446 = distinct !{!446, !432, !447}
!447 = !DILocation(line: 62, column: 1, scope: !426)
!448 = !DILocation(line: 66, column: 1, scope: !263)
!449 = !DILocation(line: 67, column: 1, scope: !263)
!450 = !DILocalVariable(name: "i", scope: !451, file: !1, line: 68, type: !15)
!451 = distinct !DILexicalBlock(scope: !263, file: !1, line: 68, column: 3)
!452 = !DILocation(line: 68, column: 12, scope: !451)
!453 = !DILocation(line: 68, column: 8, scope: !451)
!454 = !DILocation(line: 68, column: 20, scope: !455)
!455 = distinct !DILexicalBlock(scope: !451, file: !1, line: 68, column: 3)
!456 = !DILocation(line: 68, column: 22, scope: !455)
!457 = !DILocation(line: 68, column: 3, scope: !451)
!458 = !DILocation(line: 70, column: 18, scope: !459)
!459 = distinct !DILexicalBlock(scope: !455, file: !1, line: 69, column: 1)
!460 = !DILocation(line: 70, column: 26, scope: !459)
!461 = !DILocation(line: 70, column: 31, scope: !459)
!462 = !DILocation(line: 70, column: 39, scope: !459)
!463 = !DILocation(line: 70, column: 40, scope: !459)
!464 = !DILocation(line: 70, column: 29, scope: !459)
!465 = !DILocation(line: 70, column: 5, scope: !459)
!466 = !DILocation(line: 70, column: 13, scope: !459)
!467 = !DILocation(line: 70, column: 16, scope: !459)
!468 = !DILocation(line: 71, column: 1, scope: !459)
!469 = !DILocation(line: 68, column: 28, scope: !455)
!470 = !DILocation(line: 68, column: 3, scope: !455)
!471 = distinct !{!471, !457, !472}
!472 = !DILocation(line: 71, column: 1, scope: !451)
!473 = !DILocation(line: 73, column: 1, scope: !263)
!474 = !DILocalVariable(name: "i", scope: !475, file: !1, line: 74, type: !15)
!475 = distinct !DILexicalBlock(scope: !263, file: !1, line: 74, column: 3)
!476 = !DILocation(line: 74, column: 12, scope: !475)
!477 = !DILocation(line: 74, column: 8, scope: !475)
!478 = !DILocation(line: 74, column: 20, scope: !479)
!479 = distinct !DILexicalBlock(scope: !475, file: !1, line: 74, column: 3)
!480 = !DILocation(line: 74, column: 22, scope: !479)
!481 = !DILocation(line: 74, column: 3, scope: !475)
!482 = !DILocation(line: 76, column: 18, scope: !483)
!483 = distinct !DILexicalBlock(scope: !479, file: !1, line: 75, column: 1)
!484 = !DILocation(line: 76, column: 26, scope: !483)
!485 = !DILocation(line: 76, column: 31, scope: !483)
!486 = !DILocation(line: 76, column: 39, scope: !483)
!487 = !DILocation(line: 76, column: 40, scope: !483)
!488 = !DILocation(line: 76, column: 29, scope: !483)
!489 = !DILocation(line: 76, column: 5, scope: !483)
!490 = !DILocation(line: 76, column: 13, scope: !483)
!491 = !DILocation(line: 76, column: 16, scope: !483)
!492 = !DILocation(line: 77, column: 1, scope: !483)
!493 = !DILocation(line: 74, column: 28, scope: !479)
!494 = !DILocation(line: 74, column: 3, scope: !479)
!495 = distinct !{!495, !481, !496}
!496 = !DILocation(line: 77, column: 1, scope: !475)
!497 = !DILocation(line: 82, column: 1, scope: !263)
!498 = !DILocation(line: 83, column: 1, scope: !263)
!499 = !DILocalVariable(name: "i", scope: !500, file: !1, line: 84, type: !15)
!500 = distinct !DILexicalBlock(scope: !263, file: !1, line: 84, column: 3)
!501 = !DILocation(line: 84, column: 12, scope: !500)
!502 = !DILocation(line: 84, column: 8, scope: !500)
!503 = !DILocation(line: 84, column: 20, scope: !504)
!504 = distinct !DILexicalBlock(scope: !500, file: !1, line: 84, column: 3)
!505 = !DILocation(line: 84, column: 22, scope: !504)
!506 = !DILocation(line: 84, column: 3, scope: !500)
!507 = !DILocation(line: 86, column: 18, scope: !508)
!508 = distinct !DILexicalBlock(scope: !504, file: !1, line: 85, column: 1)
!509 = !DILocation(line: 86, column: 26, scope: !508)
!510 = !DILocation(line: 86, column: 31, scope: !508)
!511 = !DILocation(line: 86, column: 39, scope: !508)
!512 = !DILocation(line: 86, column: 40, scope: !508)
!513 = !DILocation(line: 86, column: 29, scope: !508)
!514 = !DILocation(line: 86, column: 5, scope: !508)
!515 = !DILocation(line: 86, column: 13, scope: !508)
!516 = !DILocation(line: 86, column: 16, scope: !508)
!517 = !DILocation(line: 87, column: 1, scope: !508)
!518 = !DILocation(line: 84, column: 28, scope: !504)
!519 = !DILocation(line: 84, column: 3, scope: !504)
!520 = distinct !{!520, !506, !521}
!521 = !DILocation(line: 87, column: 1, scope: !500)
!522 = !DILocation(line: 89, column: 1, scope: !263)
!523 = !DILocation(line: 90, column: 1, scope: !263)
!524 = !DILocalVariable(name: "i", scope: !525, file: !1, line: 91, type: !15)
!525 = distinct !DILexicalBlock(scope: !263, file: !1, line: 91, column: 3)
!526 = !DILocation(line: 91, column: 12, scope: !525)
!527 = !DILocation(line: 91, column: 8, scope: !525)
!528 = !DILocation(line: 91, column: 20, scope: !529)
!529 = distinct !DILexicalBlock(scope: !525, file: !1, line: 91, column: 3)
!530 = !DILocation(line: 91, column: 22, scope: !529)
!531 = !DILocation(line: 91, column: 3, scope: !525)
!532 = !DILocation(line: 93, column: 18, scope: !533)
!533 = distinct !DILexicalBlock(scope: !529, file: !1, line: 92, column: 1)
!534 = !DILocation(line: 93, column: 26, scope: !533)
!535 = !DILocation(line: 93, column: 31, scope: !533)
!536 = !DILocation(line: 93, column: 39, scope: !533)
!537 = !DILocation(line: 93, column: 40, scope: !533)
!538 = !DILocation(line: 93, column: 29, scope: !533)
!539 = !DILocation(line: 93, column: 5, scope: !533)
!540 = !DILocation(line: 93, column: 13, scope: !533)
!541 = !DILocation(line: 93, column: 16, scope: !533)
!542 = !DILocation(line: 94, column: 1, scope: !533)
!543 = !DILocation(line: 91, column: 28, scope: !529)
!544 = !DILocation(line: 91, column: 3, scope: !529)
!545 = distinct !{!545, !531, !546}
!546 = !DILocation(line: 94, column: 1, scope: !525)
!547 = !DILocation(line: 96, column: 1, scope: !263)
!548 = !DILocation(line: 97, column: 1, scope: !263)
!549 = !DILocalVariable(name: "i", scope: !550, file: !1, line: 98, type: !15)
!550 = distinct !DILexicalBlock(scope: !263, file: !1, line: 98, column: 3)
!551 = !DILocation(line: 98, column: 10, scope: !550)
!552 = !DILocation(line: 98, column: 8, scope: !550)
!553 = !DILocation(line: 98, column: 18, scope: !554)
!554 = distinct !DILexicalBlock(scope: !550, file: !1, line: 98, column: 3)
!555 = !DILocation(line: 98, column: 20, scope: !554)
!556 = !DILocation(line: 98, column: 3, scope: !550)
!557 = !DILocation(line: 100, column: 18, scope: !558)
!558 = distinct !DILexicalBlock(scope: !554, file: !1, line: 99, column: 1)
!559 = !DILocation(line: 100, column: 26, scope: !558)
!560 = !DILocation(line: 100, column: 31, scope: !558)
!561 = !DILocation(line: 100, column: 39, scope: !558)
!562 = !DILocation(line: 100, column: 40, scope: !558)
!563 = !DILocation(line: 100, column: 29, scope: !558)
!564 = !DILocation(line: 100, column: 5, scope: !558)
!565 = !DILocation(line: 100, column: 13, scope: !558)
!566 = !DILocation(line: 100, column: 16, scope: !558)
!567 = !DILocation(line: 101, column: 1, scope: !558)
!568 = !DILocation(line: 98, column: 26, scope: !554)
!569 = !DILocation(line: 98, column: 3, scope: !554)
!570 = distinct !{!570, !556, !571}
!571 = !DILocation(line: 101, column: 1, scope: !550)
!572 = !DILocation(line: 103, column: 1, scope: !263)
!573 = !DILocation(line: 104, column: 3, scope: !263)
!574 = !DILocation(line: 105, column: 10, scope: !263)
!575 = !DILocation(line: 105, column: 3, scope: !263)
