; ModuleID = 'teams_distribute_parallel_for_firstprivate_messages.cpp'
source_filename = "teams_distribute_parallel_for_firstprivate_messages.cpp"
target datalayout = "e-m:e-p270:32:32-p271:32:32-p272:64:64-i64:64-f80:128-n8:16:32:64-S128"
target triple = "x86_64-pc-linux-gnu"

%class.S2 = type { i32 }
%class.S3 = type { i32 }
%class.S4 = type { i32 }
%class.S5 = type { i32 }
%class.S6 = type { i32 }

$_ZN2S2C2Ev = comdat any

$_ZN2S3C2Ev = comdat any

$_ZN2S4C2Ei = comdat any

$_ZN2S5C2Ei = comdat any

$_ZN2S6C2Ev = comdat any

@_ZN2S24S2scE = dso_local constant float 0.000000e+00, align 4, !dbg !0
@_ZL1b = internal global %class.S2 zeroinitializer, align 4, !dbg !6
@_ZL2ba = internal global [5 x %class.S2] zeroinitializer, align 16, !dbg !25
@_ZL1c = internal global %class.S3 zeroinitializer, align 4, !dbg !30
@_ZL2ca = internal global [5 x %class.S3] zeroinitializer, align 16, !dbg !48
@h = dso_local global %class.S3 zeroinitializer, align 4, !dbg !51
@.str = private unnamed_addr constant [56 x i8] c"#pragma omp teams distribute parallel for firstprivate \00", align 1
@.str.5 = private unnamed_addr constant [58 x i8] c"#pragma omp teams distribute parallel for firstprivate ( \00", align 1
@.str.6 = private unnamed_addr constant [59 x i8] c"#pragma omp teams distribute parallel for firstprivate () \00", align 1
@.str.7 = private unnamed_addr constant [62 x i8] c"#pragma omp teams distribute parallel for firstprivate (argc \00", align 1
@.str.8 = private unnamed_addr constant [63 x i8] c"#pragma omp teams distribute parallel for firstprivate (argc, \00", align 1
@.str.9 = private unnamed_addr constant [87 x i8] c"#pragma omp teams distribute parallel for firstprivate (argc > 0 ? argv[1] : argv[2]) \00", align 1
@.str.10 = private unnamed_addr constant [62 x i8] c"#pragma omp teams distribute parallel for firstprivate (argc)\00", align 1
@.str.11 = private unnamed_addr constant [61 x i8] c"#pragma omp teams distribute parallel for firstprivate (s1) \00", align 1
@.str.12 = private unnamed_addr constant [72 x i8] c"#pragma omp teams distribute parallel for firstprivate (a, b, c, d, f) \00", align 1
@.str.13 = private unnamed_addr constant [66 x i8] c"#pragma omp teams distribute parallel for firstprivate (argv[1]) \00", align 1
@.str.14 = private unnamed_addr constant [59 x i8] c"#pragma omp teams distribute parallel for firstprivate(ba)\00", align 1
@.str.15 = private unnamed_addr constant [60 x i8] c"#pragma omp teams distribute parallel for firstprivate(ca) \00", align 1
@.str.16 = private unnamed_addr constant [59 x i8] c"#pragma omp teams distribute parallel for firstprivate(da)\00", align 1
@.str.17 = private unnamed_addr constant [64 x i8] c"#pragma omp teams distribute parallel for firstprivate(s2::s2s)\00", align 1
@.str.18 = private unnamed_addr constant [65 x i8] c"#pragma omp teams distribute parallel for firstprivate(s2::s2sc)\00", align 1
@.str.19 = private unnamed_addr constant [59 x i8] c"#pragma omp teams distribute parallel for firstprivate(h) \00", align 1
@.str.20 = private unnamed_addr constant [71 x i8] c"#pragma omp teams distribute parallel for private(i), firstprivate(i) \00", align 1
@.str.21 = private unnamed_addr constant [58 x i8] c"#pragma omp teams distribute parallel for firstprivate(i)\00", align 1
@.str.22 = private unnamed_addr constant [59 x i8] c"#pragma omp teams distribute parallel for firstprivate(i) \00", align 1
@.str.23 = private unnamed_addr constant [58 x i8] c"#pragma omp teams distribute parallel for firstprivate(j)\00", align 1
@.str.24 = private unnamed_addr constant [81 x i8] c"#pragma omp teams distribute parallel for lastprivate(argc), firstprivate(argc) \00", align 1
@llvm.global_ctors = appending global [1 x { i32, void ()*, i8* }] [{ i32, void ()*, i8* } { i32 65535, void ()* @_GLOBAL__sub_I_teams_distribute_parallel_for_firstprivate_messages.cpp, i8* null }]

; Function Attrs: noinline nounwind optnone uwtable
define dso_local void @_Z3foov() #0 !dbg !57 {
  ret void, !dbg !60
}

; Function Attrs: noinline nounwind optnone uwtable
define dso_local zeroext i1 @_Z7foobooli(i32 %0) #0 !dbg !61 {
  %2 = alloca i32, align 4
  store i32 %0, i32* %2, align 4
  call void @llvm.dbg.declare(metadata i32* %2, metadata !65, metadata !DIExpression()), !dbg !66
  %3 = load i32, i32* %2, align 4, !dbg !67
  %4 = icmp ne i32 %3, 0, !dbg !67
  ret i1 %4, !dbg !68
}

; Function Attrs: nounwind readnone speculatable willreturn
declare void @llvm.dbg.declare(metadata, metadata, metadata) #1

; Function Attrs: noinline uwtable
define internal void @__cxx_global_var_init() #2 section ".text.startup" !dbg !69 {
  call void @_ZN2S2C2Ev(%class.S2* @_ZL1b), !dbg !70
  ret void, !dbg !70
}

; Function Attrs: noinline nounwind optnone uwtable
define linkonce_odr dso_local void @_ZN2S2C2Ev(%class.S2* %0) unnamed_addr #0 comdat align 2 !dbg !71 {
  %2 = alloca %class.S2*, align 8
  store %class.S2* %0, %class.S2** %2, align 8
  call void @llvm.dbg.declare(metadata %class.S2** %2, metadata !72, metadata !DIExpression()), !dbg !74
  %3 = load %class.S2*, %class.S2** %2, align 8
  %4 = getelementptr inbounds %class.S2, %class.S2* %3, i32 0, i32 0, !dbg !75
  store i32 0, i32* %4, align 4, !dbg !75
  ret void, !dbg !76
}

; Function Attrs: noinline uwtable
define internal void @__cxx_global_var_init.1() #2 section ".text.startup" !dbg !77 {
  br label %1, !dbg !78

1:                                                ; preds = %1, %0
  %2 = phi %class.S2* [ getelementptr inbounds ([5 x %class.S2], [5 x %class.S2]* @_ZL2ba, i32 0, i32 0), %0 ], [ %3, %1 ], !dbg !78
  call void @_ZN2S2C2Ev(%class.S2* %2), !dbg !78
  %3 = getelementptr inbounds %class.S2, %class.S2* %2, i64 1, !dbg !78
  %4 = icmp eq %class.S2* %3, getelementptr inbounds (%class.S2, %class.S2* getelementptr inbounds ([5 x %class.S2], [5 x %class.S2]* @_ZL2ba, i32 0, i32 0), i64 5), !dbg !78
  br i1 %4, label %5, label %1, !dbg !78

5:                                                ; preds = %1
  ret void, !dbg !78
}

; Function Attrs: noinline uwtable
define internal void @__cxx_global_var_init.2() #2 section ".text.startup" !dbg !79 {
  call void @_ZN2S3C2Ev(%class.S3* @_ZL1c), !dbg !80
  ret void, !dbg !80
}

; Function Attrs: noinline nounwind optnone uwtable
define linkonce_odr dso_local void @_ZN2S3C2Ev(%class.S3* %0) unnamed_addr #0 comdat align 2 !dbg !81 {
  %2 = alloca %class.S3*, align 8
  store %class.S3* %0, %class.S3** %2, align 8
  call void @llvm.dbg.declare(metadata %class.S3** %2, metadata !82, metadata !DIExpression()), !dbg !84
  %3 = load %class.S3*, %class.S3** %2, align 8
  %4 = getelementptr inbounds %class.S3, %class.S3* %3, i32 0, i32 0, !dbg !85
  store i32 0, i32* %4, align 4, !dbg !85
  ret void, !dbg !86
}

; Function Attrs: noinline uwtable
define internal void @__cxx_global_var_init.3() #2 section ".text.startup" !dbg !87 {
  br label %1, !dbg !88

1:                                                ; preds = %1, %0
  %2 = phi %class.S3* [ getelementptr inbounds ([5 x %class.S3], [5 x %class.S3]* @_ZL2ca, i32 0, i32 0), %0 ], [ %3, %1 ], !dbg !88
  call void @_ZN2S3C2Ev(%class.S3* %2), !dbg !88
  %3 = getelementptr inbounds %class.S3, %class.S3* %2, i64 1, !dbg !88
  %4 = icmp eq %class.S3* %3, getelementptr inbounds (%class.S3, %class.S3* getelementptr inbounds ([5 x %class.S3], [5 x %class.S3]* @_ZL2ca, i32 0, i32 0), i64 5), !dbg !88
  br i1 %4, label %5, label %1, !dbg !88

5:                                                ; preds = %1
  ret void, !dbg !88
}

; Function Attrs: noinline uwtable
define internal void @__cxx_global_var_init.4() #2 section ".text.startup" !dbg !89 {
  call void @_ZN2S3C2Ev(%class.S3* @h), !dbg !90
  ret void, !dbg !90
}

; Function Attrs: noinline norecurse optnone uwtable
define dso_local i32 @main(i32 %0, i8** %1) #3 !dbg !91 {
  %3 = alloca i32, align 4
  %4 = alloca i32, align 4
  %5 = alloca i8**, align 8
  %6 = alloca i32, align 4
  %7 = alloca [5 x i32], align 16
  %8 = alloca %class.S4, align 4
  %9 = alloca %class.S5, align 4
  %10 = alloca %class.S6, align 4
  %11 = alloca i32, align 4
  %12 = alloca i32*, align 8
  store i32 0, i32* %3, align 4
  store i32 %0, i32* %4, align 4
  call void @llvm.dbg.declare(metadata i32* %4, metadata !97, metadata !DIExpression()), !dbg !98
  store i8** %1, i8*** %5, align 8
  call void @llvm.dbg.declare(metadata i8*** %5, metadata !99, metadata !DIExpression()), !dbg !100
  call void @llvm.dbg.declare(metadata i32* %6, metadata !101, metadata !DIExpression()), !dbg !103
  store i32 5, i32* %6, align 4, !dbg !103
  call void @llvm.dbg.declare(metadata [5 x i32]* %7, metadata !104, metadata !DIExpression()), !dbg !106
  %13 = bitcast [5 x i32]* %7 to i8*, !dbg !106
  call void @llvm.memset.p0i8.i64(i8* align 16 %13, i8 0, i64 20, i1 false), !dbg !106
  call void @llvm.dbg.declare(metadata %class.S4* %8, metadata !107, metadata !DIExpression()), !dbg !123
  call void @_ZN2S4C2Ei(%class.S4* %8, i32 4), !dbg !123
  call void @llvm.dbg.declare(metadata %class.S5* %9, metadata !124, metadata !DIExpression()), !dbg !140
  call void @_ZN2S5C2Ei(%class.S5* %9, i32 5), !dbg !140
  call void @llvm.dbg.declare(metadata %class.S6* %10, metadata !141, metadata !DIExpression()), !dbg !149
  call void @_ZN2S6C2Ev(%class.S6* %10), !dbg !149
  call void @llvm.dbg.declare(metadata i32* %11, metadata !150, metadata !DIExpression()), !dbg !151
  call void @llvm.dbg.declare(metadata i32** %12, metadata !152, metadata !DIExpression()), !dbg !154
  store i32* %11, i32** %12, align 8, !dbg !154
  call void @_Z25omp_for_pragma_talkad7420Pc(i8* getelementptr inbounds ([56 x i8], [56 x i8]* @.str, i64 0, i64 0)), !dbg !155
  call void @_Z19for_loop_talkad7420v(), !dbg !156
  store i32 0, i32* %11, align 4, !dbg !157
  br label %14, !dbg !159

14:                                               ; preds = %19, %2
  %15 = load i32, i32* %11, align 4, !dbg !160
  %16 = load i32, i32* %4, align 4, !dbg !162
  %17 = icmp slt i32 %15, %16, !dbg !163
  br i1 %17, label %18, label %22, !dbg !164

18:                                               ; preds = %14
  call void @_Z3foov(), !dbg !165
  br label %19, !dbg !165

19:                                               ; preds = %18
  %20 = load i32, i32* %11, align 4, !dbg !166
  %21 = add nsw i32 %20, 1, !dbg !166
  store i32 %21, i32* %11, align 4, !dbg !166
  br label %14, !dbg !167, !llvm.loop !168

22:                                               ; preds = %14
  call void @_Z25omp_for_pragma_talkad7420Pc(i8* getelementptr inbounds ([58 x i8], [58 x i8]* @.str.5, i64 0, i64 0)), !dbg !170
  call void @_Z19for_loop_talkad7420v(), !dbg !171
  store i32 0, i32* %11, align 4, !dbg !172
  br label %23, !dbg !174

23:                                               ; preds = %28, %22
  %24 = load i32, i32* %11, align 4, !dbg !175
  %25 = load i32, i32* %4, align 4, !dbg !177
  %26 = icmp slt i32 %24, %25, !dbg !178
  br i1 %26, label %27, label %31, !dbg !179

27:                                               ; preds = %23
  call void @_Z3foov(), !dbg !180
  br label %28, !dbg !180

28:                                               ; preds = %27
  %29 = load i32, i32* %11, align 4, !dbg !181
  %30 = add nsw i32 %29, 1, !dbg !181
  store i32 %30, i32* %11, align 4, !dbg !181
  br label %23, !dbg !182, !llvm.loop !183

31:                                               ; preds = %23
  call void @_Z25omp_for_pragma_talkad7420Pc(i8* getelementptr inbounds ([59 x i8], [59 x i8]* @.str.6, i64 0, i64 0)), !dbg !185
  call void @_Z19for_loop_talkad7420v(), !dbg !186
  store i32 0, i32* %11, align 4, !dbg !187
  br label %32, !dbg !189

32:                                               ; preds = %37, %31
  %33 = load i32, i32* %11, align 4, !dbg !190
  %34 = load i32, i32* %4, align 4, !dbg !192
  %35 = icmp slt i32 %33, %34, !dbg !193
  br i1 %35, label %36, label %40, !dbg !194

36:                                               ; preds = %32
  call void @_Z3foov(), !dbg !195
  br label %37, !dbg !195

37:                                               ; preds = %36
  %38 = load i32, i32* %11, align 4, !dbg !196
  %39 = add nsw i32 %38, 1, !dbg !196
  store i32 %39, i32* %11, align 4, !dbg !196
  br label %32, !dbg !197, !llvm.loop !198

40:                                               ; preds = %32
  call void @_Z25omp_for_pragma_talkad7420Pc(i8* getelementptr inbounds ([62 x i8], [62 x i8]* @.str.7, i64 0, i64 0)), !dbg !200
  call void @_Z19for_loop_talkad7420v(), !dbg !201
  store i32 0, i32* %11, align 4, !dbg !202
  br label %41, !dbg !204

41:                                               ; preds = %46, %40
  %42 = load i32, i32* %11, align 4, !dbg !205
  %43 = load i32, i32* %4, align 4, !dbg !207
  %44 = icmp slt i32 %42, %43, !dbg !208
  br i1 %44, label %45, label %49, !dbg !209

45:                                               ; preds = %41
  call void @_Z3foov(), !dbg !210
  br label %46, !dbg !210

46:                                               ; preds = %45
  %47 = load i32, i32* %11, align 4, !dbg !211
  %48 = add nsw i32 %47, 1, !dbg !211
  store i32 %48, i32* %11, align 4, !dbg !211
  br label %41, !dbg !212, !llvm.loop !213

49:                                               ; preds = %41
  call void @_Z25omp_for_pragma_talkad7420Pc(i8* getelementptr inbounds ([63 x i8], [63 x i8]* @.str.8, i64 0, i64 0)), !dbg !215
  call void @_Z19for_loop_talkad7420v(), !dbg !216
  store i32 0, i32* %11, align 4, !dbg !217
  br label %50, !dbg !219

50:                                               ; preds = %55, %49
  %51 = load i32, i32* %11, align 4, !dbg !220
  %52 = load i32, i32* %4, align 4, !dbg !222
  %53 = icmp slt i32 %51, %52, !dbg !223
  br i1 %53, label %54, label %58, !dbg !224

54:                                               ; preds = %50
  call void @_Z3foov(), !dbg !225
  br label %55, !dbg !225

55:                                               ; preds = %54
  %56 = load i32, i32* %11, align 4, !dbg !226
  %57 = add nsw i32 %56, 1, !dbg !226
  store i32 %57, i32* %11, align 4, !dbg !226
  br label %50, !dbg !227, !llvm.loop !228

58:                                               ; preds = %50
  call void @_Z25omp_for_pragma_talkad7420Pc(i8* getelementptr inbounds ([87 x i8], [87 x i8]* @.str.9, i64 0, i64 0)), !dbg !230
  call void @_Z19for_loop_talkad7420v(), !dbg !231
  store i32 0, i32* %11, align 4, !dbg !232
  br label %59, !dbg !234

59:                                               ; preds = %64, %58
  %60 = load i32, i32* %11, align 4, !dbg !235
  %61 = load i32, i32* %4, align 4, !dbg !237
  %62 = icmp slt i32 %60, %61, !dbg !238
  br i1 %62, label %63, label %67, !dbg !239

63:                                               ; preds = %59
  call void @_Z3foov(), !dbg !240
  br label %64, !dbg !240

64:                                               ; preds = %63
  %65 = load i32, i32* %11, align 4, !dbg !241
  %66 = add nsw i32 %65, 1, !dbg !241
  store i32 %66, i32* %11, align 4, !dbg !241
  br label %59, !dbg !242, !llvm.loop !243

67:                                               ; preds = %59
  call void @_Z25omp_for_pragma_talkad7420Pc(i8* getelementptr inbounds ([62 x i8], [62 x i8]* @.str.10, i64 0, i64 0)), !dbg !245
  call void @_Z19for_loop_talkad7420v(), !dbg !246
  store i32 0, i32* %11, align 4, !dbg !247
  br label %68, !dbg !249

68:                                               ; preds = %73, %67
  %69 = load i32, i32* %11, align 4, !dbg !250
  %70 = load i32, i32* %4, align 4, !dbg !252
  %71 = icmp slt i32 %69, %70, !dbg !253
  br i1 %71, label %72, label %76, !dbg !254

72:                                               ; preds = %68
  call void @_Z3foov(), !dbg !255
  br label %73, !dbg !255

73:                                               ; preds = %72
  %74 = load i32, i32* %11, align 4, !dbg !256
  %75 = add nsw i32 %74, 1, !dbg !256
  store i32 %75, i32* %11, align 4, !dbg !256
  br label %68, !dbg !257, !llvm.loop !258

76:                                               ; preds = %68
  call void @_Z25omp_for_pragma_talkad7420Pc(i8* getelementptr inbounds ([61 x i8], [61 x i8]* @.str.11, i64 0, i64 0)), !dbg !260
  call void @_Z19for_loop_talkad7420v(), !dbg !261
  store i32 0, i32* %11, align 4, !dbg !262
  br label %77, !dbg !264

77:                                               ; preds = %82, %76
  %78 = load i32, i32* %11, align 4, !dbg !265
  %79 = load i32, i32* %4, align 4, !dbg !267
  %80 = icmp slt i32 %78, %79, !dbg !268
  br i1 %80, label %81, label %85, !dbg !269

81:                                               ; preds = %77
  call void @_Z3foov(), !dbg !270
  br label %82, !dbg !270

82:                                               ; preds = %81
  %83 = load i32, i32* %11, align 4, !dbg !271
  %84 = add nsw i32 %83, 1, !dbg !271
  store i32 %84, i32* %11, align 4, !dbg !271
  br label %77, !dbg !272, !llvm.loop !273

85:                                               ; preds = %77
  call void @_Z25omp_for_pragma_talkad7420Pc(i8* getelementptr inbounds ([72 x i8], [72 x i8]* @.str.12, i64 0, i64 0)), !dbg !275
  call void @_Z19for_loop_talkad7420v(), !dbg !276
  store i32 0, i32* %11, align 4, !dbg !277
  br label %86, !dbg !279

86:                                               ; preds = %91, %85
  %87 = load i32, i32* %11, align 4, !dbg !280
  %88 = load i32, i32* %4, align 4, !dbg !282
  %89 = icmp slt i32 %87, %88, !dbg !283
  br i1 %89, label %90, label %94, !dbg !284

90:                                               ; preds = %86
  call void @_Z3foov(), !dbg !285
  br label %91, !dbg !285

91:                                               ; preds = %90
  %92 = load i32, i32* %11, align 4, !dbg !286
  %93 = add nsw i32 %92, 1, !dbg !286
  store i32 %93, i32* %11, align 4, !dbg !286
  br label %86, !dbg !287, !llvm.loop !288

94:                                               ; preds = %86
  call void @_Z25omp_for_pragma_talkad7420Pc(i8* getelementptr inbounds ([66 x i8], [66 x i8]* @.str.13, i64 0, i64 0)), !dbg !290
  call void @_Z19for_loop_talkad7420v(), !dbg !291
  store i32 0, i32* %11, align 4, !dbg !292
  br label %95, !dbg !294

95:                                               ; preds = %100, %94
  %96 = load i32, i32* %11, align 4, !dbg !295
  %97 = load i32, i32* %4, align 4, !dbg !297
  %98 = icmp slt i32 %96, %97, !dbg !298
  br i1 %98, label %99, label %103, !dbg !299

99:                                               ; preds = %95
  call void @_Z3foov(), !dbg !300
  br label %100, !dbg !300

100:                                              ; preds = %99
  %101 = load i32, i32* %11, align 4, !dbg !301
  %102 = add nsw i32 %101, 1, !dbg !301
  store i32 %102, i32* %11, align 4, !dbg !301
  br label %95, !dbg !302, !llvm.loop !303

103:                                              ; preds = %95
  call void @_Z25omp_for_pragma_talkad7420Pc(i8* getelementptr inbounds ([59 x i8], [59 x i8]* @.str.14, i64 0, i64 0)), !dbg !305
  call void @_Z19for_loop_talkad7420v(), !dbg !306
  store i32 0, i32* %11, align 4, !dbg !307
  br label %104, !dbg !309

104:                                              ; preds = %109, %103
  %105 = load i32, i32* %11, align 4, !dbg !310
  %106 = load i32, i32* %4, align 4, !dbg !312
  %107 = icmp slt i32 %105, %106, !dbg !313
  br i1 %107, label %108, label %112, !dbg !314

108:                                              ; preds = %104
  call void @_Z3foov(), !dbg !315
  br label %109, !dbg !315

109:                                              ; preds = %108
  %110 = load i32, i32* %11, align 4, !dbg !316
  %111 = add nsw i32 %110, 1, !dbg !316
  store i32 %111, i32* %11, align 4, !dbg !316
  br label %104, !dbg !317, !llvm.loop !318

112:                                              ; preds = %104
  call void @_Z25omp_for_pragma_talkad7420Pc(i8* getelementptr inbounds ([60 x i8], [60 x i8]* @.str.15, i64 0, i64 0)), !dbg !320
  call void @_Z19for_loop_talkad7420v(), !dbg !321
  store i32 0, i32* %11, align 4, !dbg !322
  br label %113, !dbg !324

113:                                              ; preds = %118, %112
  %114 = load i32, i32* %11, align 4, !dbg !325
  %115 = load i32, i32* %4, align 4, !dbg !327
  %116 = icmp slt i32 %114, %115, !dbg !328
  br i1 %116, label %117, label %121, !dbg !329

117:                                              ; preds = %113
  call void @_Z3foov(), !dbg !330
  br label %118, !dbg !330

118:                                              ; preds = %117
  %119 = load i32, i32* %11, align 4, !dbg !331
  %120 = add nsw i32 %119, 1, !dbg !331
  store i32 %120, i32* %11, align 4, !dbg !331
  br label %113, !dbg !332, !llvm.loop !333

121:                                              ; preds = %113
  call void @_Z25omp_for_pragma_talkad7420Pc(i8* getelementptr inbounds ([59 x i8], [59 x i8]* @.str.16, i64 0, i64 0)), !dbg !335
  call void @_Z19for_loop_talkad7420v(), !dbg !336
  store i32 0, i32* %11, align 4, !dbg !337
  br label %122, !dbg !339

122:                                              ; preds = %127, %121
  %123 = load i32, i32* %11, align 4, !dbg !340
  %124 = load i32, i32* %4, align 4, !dbg !342
  %125 = icmp slt i32 %123, %124, !dbg !343
  br i1 %125, label %126, label %130, !dbg !344

126:                                              ; preds = %122
  call void @_Z3foov(), !dbg !345
  br label %127, !dbg !345

127:                                              ; preds = %126
  %128 = load i32, i32* %11, align 4, !dbg !346
  %129 = add nsw i32 %128, 1, !dbg !346
  store i32 %129, i32* %11, align 4, !dbg !346
  br label %122, !dbg !347, !llvm.loop !348

130:                                              ; preds = %122
  call void @_Z25omp_for_pragma_talkad7420Pc(i8* getelementptr inbounds ([64 x i8], [64 x i8]* @.str.17, i64 0, i64 0)), !dbg !350
  call void @_Z19for_loop_talkad7420v(), !dbg !351
  store i32 0, i32* %11, align 4, !dbg !352
  br label %131, !dbg !354

131:                                              ; preds = %136, %130
  %132 = load i32, i32* %11, align 4, !dbg !355
  %133 = load i32, i32* %4, align 4, !dbg !357
  %134 = icmp slt i32 %132, %133, !dbg !358
  br i1 %134, label %135, label %139, !dbg !359

135:                                              ; preds = %131
  call void @_Z3foov(), !dbg !360
  br label %136, !dbg !360

136:                                              ; preds = %135
  %137 = load i32, i32* %11, align 4, !dbg !361
  %138 = add nsw i32 %137, 1, !dbg !361
  store i32 %138, i32* %11, align 4, !dbg !361
  br label %131, !dbg !362, !llvm.loop !363

139:                                              ; preds = %131
  call void @_Z25omp_for_pragma_talkad7420Pc(i8* getelementptr inbounds ([65 x i8], [65 x i8]* @.str.18, i64 0, i64 0)), !dbg !365
  call void @_Z19for_loop_talkad7420v(), !dbg !366
  store i32 0, i32* %11, align 4, !dbg !367
  br label %140, !dbg !369

140:                                              ; preds = %145, %139
  %141 = load i32, i32* %11, align 4, !dbg !370
  %142 = load i32, i32* %4, align 4, !dbg !372
  %143 = icmp slt i32 %141, %142, !dbg !373
  br i1 %143, label %144, label %148, !dbg !374

144:                                              ; preds = %140
  call void @_Z3foov(), !dbg !375
  br label %145, !dbg !375

145:                                              ; preds = %144
  %146 = load i32, i32* %11, align 4, !dbg !376
  %147 = add nsw i32 %146, 1, !dbg !376
  store i32 %147, i32* %11, align 4, !dbg !376
  br label %140, !dbg !377, !llvm.loop !378

148:                                              ; preds = %140
  call void @_Z25omp_for_pragma_talkad7420Pc(i8* getelementptr inbounds ([59 x i8], [59 x i8]* @.str.19, i64 0, i64 0)), !dbg !380
  call void @_Z19for_loop_talkad7420v(), !dbg !381
  store i32 0, i32* %11, align 4, !dbg !382
  br label %149, !dbg !384

149:                                              ; preds = %154, %148
  %150 = load i32, i32* %11, align 4, !dbg !385
  %151 = load i32, i32* %4, align 4, !dbg !387
  %152 = icmp slt i32 %150, %151, !dbg !388
  br i1 %152, label %153, label %157, !dbg !389

153:                                              ; preds = %149
  call void @_Z3foov(), !dbg !390
  br label %154, !dbg !390

154:                                              ; preds = %153
  %155 = load i32, i32* %11, align 4, !dbg !391
  %156 = add nsw i32 %155, 1, !dbg !391
  store i32 %156, i32* %11, align 4, !dbg !391
  br label %149, !dbg !392, !llvm.loop !393

157:                                              ; preds = %149
  call void @_Z25omp_for_pragma_talkad7420Pc(i8* getelementptr inbounds ([71 x i8], [71 x i8]* @.str.20, i64 0, i64 0)), !dbg !395
  call void @_Z19for_loop_talkad7420v(), !dbg !396
  store i32 0, i32* %11, align 4, !dbg !397
  br label %158, !dbg !399

158:                                              ; preds = %163, %157
  %159 = load i32, i32* %11, align 4, !dbg !400
  %160 = load i32, i32* %4, align 4, !dbg !402
  %161 = icmp slt i32 %159, %160, !dbg !403
  br i1 %161, label %162, label %166, !dbg !404

162:                                              ; preds = %158
  call void @_Z3foov(), !dbg !405
  br label %163, !dbg !405

163:                                              ; preds = %162
  %164 = load i32, i32* %11, align 4, !dbg !406
  %165 = add nsw i32 %164, 1, !dbg !406
  store i32 %165, i32* %11, align 4, !dbg !406
  br label %158, !dbg !407, !llvm.loop !408

166:                                              ; preds = %158
  call void @_Z25omp_for_pragma_talkad7420Pc(i8* getelementptr inbounds ([58 x i8], [58 x i8]* @.str.21, i64 0, i64 0)), !dbg !410
  call void @_Z19for_loop_talkad7420v(), !dbg !411
  %167 = load i32*, i32** %12, align 8, !dbg !412
  store i32 0, i32* %167, align 4, !dbg !414
  br label %168, !dbg !412

168:                                              ; preds = %174, %166
  %169 = load i32*, i32** %12, align 8, !dbg !415
  %170 = load i32, i32* %169, align 4, !dbg !415
  %171 = load i32, i32* %4, align 4, !dbg !417
  %172 = icmp slt i32 %170, %171, !dbg !418
  br i1 %172, label %173, label %178, !dbg !419

173:                                              ; preds = %168
  call void @_Z3foov(), !dbg !420
  br label %174, !dbg !420

174:                                              ; preds = %173
  %175 = load i32*, i32** %12, align 8, !dbg !421
  %176 = load i32, i32* %175, align 4, !dbg !422
  %177 = add nsw i32 %176, 1, !dbg !422
  store i32 %177, i32* %175, align 4, !dbg !422
  br label %168, !dbg !423, !llvm.loop !424

178:                                              ; preds = %168
  call void @_Z25omp_for_pragma_talkad7420Pc(i8* getelementptr inbounds ([59 x i8], [59 x i8]* @.str.22, i64 0, i64 0)), !dbg !426
  call void @_Z19for_loop_talkad7420v(), !dbg !427
  store i32 0, i32* %11, align 4, !dbg !428
  br label %179, !dbg !430

179:                                              ; preds = %184, %178
  %180 = load i32, i32* %11, align 4, !dbg !431
  %181 = load i32, i32* %4, align 4, !dbg !433
  %182 = icmp slt i32 %180, %181, !dbg !434
  br i1 %182, label %183, label %187, !dbg !435

183:                                              ; preds = %179
  call void @_Z3foov(), !dbg !436
  br label %184, !dbg !436

184:                                              ; preds = %183
  %185 = load i32, i32* %11, align 4, !dbg !437
  %186 = add nsw i32 %185, 1, !dbg !437
  store i32 %186, i32* %11, align 4, !dbg !437
  br label %179, !dbg !438, !llvm.loop !439

187:                                              ; preds = %179
  call void @_Z25omp_for_pragma_talkad7420Pc(i8* getelementptr inbounds ([58 x i8], [58 x i8]* @.str.23, i64 0, i64 0)), !dbg !441
  call void @_Z19for_loop_talkad7420v(), !dbg !442
  store i32 0, i32* %11, align 4, !dbg !443
  br label %188, !dbg !445

188:                                              ; preds = %193, %187
  %189 = load i32, i32* %11, align 4, !dbg !446
  %190 = load i32, i32* %4, align 4, !dbg !448
  %191 = icmp slt i32 %189, %190, !dbg !449
  br i1 %191, label %192, label %196, !dbg !450

192:                                              ; preds = %188
  call void @_Z3foov(), !dbg !451
  br label %193, !dbg !451

193:                                              ; preds = %192
  %194 = load i32, i32* %11, align 4, !dbg !452
  %195 = add nsw i32 %194, 1, !dbg !452
  store i32 %195, i32* %11, align 4, !dbg !452
  br label %188, !dbg !453, !llvm.loop !454

196:                                              ; preds = %188
  call void @_Z25omp_for_pragma_talkad7420Pc(i8* getelementptr inbounds ([81 x i8], [81 x i8]* @.str.24, i64 0, i64 0)), !dbg !456
  call void @_Z19for_loop_talkad7420v(), !dbg !457
  store i32 0, i32* %11, align 4, !dbg !458
  br label %197, !dbg !460

197:                                              ; preds = %202, %196
  %198 = load i32, i32* %11, align 4, !dbg !461
  %199 = load i32, i32* %4, align 4, !dbg !463
  %200 = icmp slt i32 %198, %199, !dbg !464
  br i1 %200, label %201, label %205, !dbg !465

201:                                              ; preds = %197
  call void @_Z3foov(), !dbg !466
  br label %202, !dbg !466

202:                                              ; preds = %201
  %203 = load i32, i32* %11, align 4, !dbg !467
  %204 = add nsw i32 %203, 1, !dbg !467
  store i32 %204, i32* %11, align 4, !dbg !467
  br label %197, !dbg !468, !llvm.loop !469

205:                                              ; preds = %197
  ret i32 0, !dbg !471
}

; Function Attrs: argmemonly nounwind willreturn
declare void @llvm.memset.p0i8.i64(i8* nocapture writeonly, i8, i64, i1 immarg) #4

; Function Attrs: noinline nounwind optnone uwtable
define linkonce_odr dso_local void @_ZN2S4C2Ei(%class.S4* %0, i32 %1) unnamed_addr #0 comdat align 2 !dbg !472 {
  %3 = alloca %class.S4*, align 8
  %4 = alloca i32, align 4
  store %class.S4* %0, %class.S4** %3, align 8
  call void @llvm.dbg.declare(metadata %class.S4** %3, metadata !473, metadata !DIExpression()), !dbg !475
  store i32 %1, i32* %4, align 4
  call void @llvm.dbg.declare(metadata i32* %4, metadata !476, metadata !DIExpression()), !dbg !477
  %5 = load %class.S4*, %class.S4** %3, align 8
  %6 = getelementptr inbounds %class.S4, %class.S4* %5, i32 0, i32 0, !dbg !478
  %7 = load i32, i32* %4, align 4, !dbg !479
  store i32 %7, i32* %6, align 4, !dbg !478
  ret void, !dbg !480
}

; Function Attrs: noinline nounwind optnone uwtable
define linkonce_odr dso_local void @_ZN2S5C2Ei(%class.S5* %0, i32 %1) unnamed_addr #0 comdat align 2 !dbg !481 {
  %3 = alloca %class.S5*, align 8
  %4 = alloca i32, align 4
  store %class.S5* %0, %class.S5** %3, align 8
  call void @llvm.dbg.declare(metadata %class.S5** %3, metadata !482, metadata !DIExpression()), !dbg !484
  store i32 %1, i32* %4, align 4
  call void @llvm.dbg.declare(metadata i32* %4, metadata !485, metadata !DIExpression()), !dbg !486
  %5 = load %class.S5*, %class.S5** %3, align 8
  %6 = getelementptr inbounds %class.S5, %class.S5* %5, i32 0, i32 0, !dbg !487
  %7 = load i32, i32* %4, align 4, !dbg !488
  store i32 %7, i32* %6, align 4, !dbg !487
  ret void, !dbg !489
}

; Function Attrs: noinline nounwind optnone uwtable
define linkonce_odr dso_local void @_ZN2S6C2Ev(%class.S6* %0) unnamed_addr #0 comdat align 2 !dbg !490 {
  %2 = alloca %class.S6*, align 8
  store %class.S6* %0, %class.S6** %2, align 8
  call void @llvm.dbg.declare(metadata %class.S6** %2, metadata !491, metadata !DIExpression()), !dbg !493
  %3 = load %class.S6*, %class.S6** %2, align 8
  %4 = getelementptr inbounds %class.S6, %class.S6* %3, i32 0, i32 0, !dbg !494
  store i32 0, i32* %4, align 4, !dbg !494
  ret void, !dbg !495
}

declare dso_local void @_Z25omp_for_pragma_talkad7420Pc(i8*) #5

declare dso_local void @_Z19for_loop_talkad7420v() #5

; Function Attrs: noinline uwtable
define internal void @_GLOBAL__sub_I_teams_distribute_parallel_for_firstprivate_messages.cpp() #2 section ".text.startup" !dbg !496 {
  call void @__cxx_global_var_init(), !dbg !498
  call void @__cxx_global_var_init.1(), !dbg !498
  call void @__cxx_global_var_init.2(), !dbg !498
  call void @__cxx_global_var_init.3(), !dbg !498
  call void @__cxx_global_var_init.4(), !dbg !498
  ret void
}

attributes #0 = { noinline nounwind optnone uwtable "correctly-rounded-divide-sqrt-fp-math"="false" "disable-tail-calls"="false" "frame-pointer"="all" "less-precise-fpmad"="false" "min-legal-vector-width"="0" "no-infs-fp-math"="false" "no-jump-tables"="false" "no-nans-fp-math"="false" "no-signed-zeros-fp-math"="false" "no-trapping-math"="false" "stack-protector-buffer-size"="8" "target-cpu"="x86-64" "target-features"="+cx8,+fxsr,+mmx,+sse,+sse2,+x87" "unsafe-fp-math"="false" "use-soft-float"="false" }
attributes #1 = { nounwind readnone speculatable willreturn }
attributes #2 = { noinline uwtable "correctly-rounded-divide-sqrt-fp-math"="false" "disable-tail-calls"="false" "frame-pointer"="all" "less-precise-fpmad"="false" "min-legal-vector-width"="0" "no-infs-fp-math"="false" "no-jump-tables"="false" "no-nans-fp-math"="false" "no-signed-zeros-fp-math"="false" "no-trapping-math"="false" "stack-protector-buffer-size"="8" "target-cpu"="x86-64" "target-features"="+cx8,+fxsr,+mmx,+sse,+sse2,+x87" "unsafe-fp-math"="false" "use-soft-float"="false" }
attributes #3 = { noinline norecurse optnone uwtable "correctly-rounded-divide-sqrt-fp-math"="false" "disable-tail-calls"="false" "frame-pointer"="all" "less-precise-fpmad"="false" "min-legal-vector-width"="0" "no-infs-fp-math"="false" "no-jump-tables"="false" "no-nans-fp-math"="false" "no-signed-zeros-fp-math"="false" "no-trapping-math"="false" "stack-protector-buffer-size"="8" "target-cpu"="x86-64" "target-features"="+cx8,+fxsr,+mmx,+sse,+sse2,+x87" "unsafe-fp-math"="false" "use-soft-float"="false" }
attributes #4 = { argmemonly nounwind willreturn }
attributes #5 = { "correctly-rounded-divide-sqrt-fp-math"="false" "disable-tail-calls"="false" "frame-pointer"="all" "less-precise-fpmad"="false" "no-infs-fp-math"="false" "no-nans-fp-math"="false" "no-signed-zeros-fp-math"="false" "no-trapping-math"="false" "stack-protector-buffer-size"="8" "target-cpu"="x86-64" "target-features"="+cx8,+fxsr,+mmx,+sse,+sse2,+x87" "unsafe-fp-math"="false" "use-soft-float"="false" }

!llvm.dbg.cu = !{!2}
!llvm.module.flags = !{!53, !54, !55}
!llvm.ident = !{!56}

!0 = !DIGlobalVariableExpression(var: !1, expr: !DIExpression())
!1 = distinct !DIGlobalVariable(name: "S2sc", linkageName: "_ZN2S24S2scE", scope: !2, file: !3, line: 21, type: !16, isLocal: false, isDefinition: true, declaration: !15)
!2 = distinct !DICompileUnit(language: DW_LANG_C_plus_plus_14, file: !3, producer: "clang version 10.0.0-4ubuntu1 ", isOptimized: false, runtimeVersion: 0, emissionKind: FullDebug, enums: !4, globals: !5, splitDebugInlining: false, nameTableKind: None)
!3 = !DIFile(filename: "teams_distribute_parallel_for_firstprivate_messages.cpp", directory: "/home/talkad/OpenMPdb/temp/DebasmitaBasu/custom-OpenMP-directives/clang/test/OpenMP")
!4 = !{}
!5 = !{!0, !6, !25, !30, !48, !51}
!6 = !DIGlobalVariableExpression(var: !7, expr: !DIExpression())
!7 = distinct !DIGlobalVariable(name: "b", linkageName: "_ZL1b", scope: !2, file: !3, line: 22, type: !8, isLocal: true, isDefinition: true)
!8 = !DIDerivedType(tag: DW_TAG_const_type, baseType: !9)
!9 = distinct !DICompositeType(tag: DW_TAG_class_type, name: "S2", file: !3, line: 11, size: 32, flags: DIFlagTypePassByReference | DIFlagNonTrivial, elements: !10, identifier: "_ZTS2S2")
!10 = !{!11, !13, !15, !17, !21}
!11 = !DIDerivedType(tag: DW_TAG_member, name: "a", scope: !9, file: !3, line: 12, baseType: !12, size: 32)
!12 = !DIBasicType(name: "int", size: 32, encoding: DW_ATE_signed)
!13 = !DIDerivedType(tag: DW_TAG_member, name: "S2s", scope: !9, file: !3, line: 18, baseType: !14, flags: DIFlagPublic | DIFlagStaticMember)
!14 = !DIBasicType(name: "float", size: 32, encoding: DW_ATE_float)
!15 = !DIDerivedType(tag: DW_TAG_member, name: "S2sc", scope: !9, file: !3, line: 19, baseType: !16, flags: DIFlagPublic | DIFlagStaticMember)
!16 = !DIDerivedType(tag: DW_TAG_const_type, baseType: !14)
!17 = !DISubprogram(name: "S2", scope: !9, file: !3, line: 14, type: !18, scopeLine: 14, flags: DIFlagPublic | DIFlagPrototyped, spFlags: 0)
!18 = !DISubroutineType(types: !19)
!19 = !{null, !20}
!20 = !DIDerivedType(tag: DW_TAG_pointer_type, baseType: !9, size: 64, flags: DIFlagArtificial | DIFlagObjectPointer)
!21 = !DISubprogram(name: "S2", scope: !9, file: !3, line: 16, type: !22, scopeLine: 16, flags: DIFlagPublic | DIFlagPrototyped, spFlags: 0)
!22 = !DISubroutineType(types: !23)
!23 = !{null, !20, !24}
!24 = !DIDerivedType(tag: DW_TAG_reference_type, baseType: !8, size: 64)
!25 = !DIGlobalVariableExpression(var: !26, expr: !DIExpression())
!26 = distinct !DIGlobalVariable(name: "ba", linkageName: "_ZL2ba", scope: !2, file: !3, line: 23, type: !27, isLocal: true, isDefinition: true)
!27 = !DICompositeType(tag: DW_TAG_array_type, baseType: !8, size: 160, elements: !28)
!28 = !{!29}
!29 = !DISubrange(count: 5)
!30 = !DIGlobalVariableExpression(var: !31, expr: !DIExpression())
!31 = distinct !DIGlobalVariable(name: "c", linkageName: "_ZL1c", scope: !2, file: !3, line: 33, type: !32, isLocal: true, isDefinition: true)
!32 = !DIDerivedType(tag: DW_TAG_const_type, baseType: !33)
!33 = distinct !DICompositeType(tag: DW_TAG_class_type, name: "S3", file: !3, line: 24, size: 32, flags: DIFlagTypePassByReference | DIFlagNonTrivial, elements: !34, identifier: "_ZTS2S3")
!34 = !{!35, !36, !42, !45}
!35 = !DIDerivedType(tag: DW_TAG_member, name: "a", scope: !33, file: !3, line: 25, baseType: !12, size: 32)
!36 = !DISubprogram(name: "operator=", linkageName: "_ZN2S3aSERKS_", scope: !33, file: !3, line: 26, type: !37, scopeLine: 26, flags: DIFlagPrototyped, spFlags: 0)
!37 = !DISubroutineType(types: !38)
!38 = !{!39, !40, !41}
!39 = !DIDerivedType(tag: DW_TAG_reference_type, baseType: !33, size: 64)
!40 = !DIDerivedType(tag: DW_TAG_pointer_type, baseType: !33, size: 64, flags: DIFlagArtificial | DIFlagObjectPointer)
!41 = !DIDerivedType(tag: DW_TAG_reference_type, baseType: !32, size: 64)
!42 = !DISubprogram(name: "S3", scope: !33, file: !3, line: 28, type: !43, scopeLine: 28, flags: DIFlagPublic | DIFlagPrototyped, spFlags: 0)
!43 = !DISubroutineType(types: !44)
!44 = !{null, !40}
!45 = !DISubprogram(name: "S3", scope: !33, file: !3, line: 30, type: !46, scopeLine: 30, flags: DIFlagPublic | DIFlagPrototyped, spFlags: 0)
!46 = !DISubroutineType(types: !47)
!47 = !{null, !40, !39}
!48 = !DIGlobalVariableExpression(var: !49, expr: !DIExpression())
!49 = distinct !DIGlobalVariable(name: "ca", linkageName: "_ZL2ca", scope: !2, file: !3, line: 34, type: !50, isLocal: true, isDefinition: true)
!50 = !DICompositeType(tag: DW_TAG_array_type, baseType: !32, size: 160, elements: !28)
!51 = !DIGlobalVariableExpression(var: !52, expr: !DIExpression())
!52 = distinct !DIGlobalVariable(name: "h", scope: !2, file: !3, line: 60, type: !33, isLocal: false, isDefinition: true)
!53 = !{i32 7, !"Dwarf Version", i32 4}
!54 = !{i32 2, !"Debug Info Version", i32 3}
!55 = !{i32 1, !"wchar_size", i32 4}
!56 = !{!"clang version 10.0.0-4ubuntu1 "}
!57 = distinct !DISubprogram(name: "foo", linkageName: "_Z3foov", scope: !3, file: !3, line: 4, type: !58, scopeLine: 4, flags: DIFlagPrototyped, spFlags: DISPFlagDefinition, unit: !2, retainedNodes: !4)
!58 = !DISubroutineType(types: !59)
!59 = !{null}
!60 = !DILocation(line: 5, column: 1, scope: !57)
!61 = distinct !DISubprogram(name: "foobool", linkageName: "_Z7foobooli", scope: !3, file: !3, line: 6, type: !62, scopeLine: 6, flags: DIFlagPrototyped, spFlags: DISPFlagDefinition, unit: !2, retainedNodes: !4)
!62 = !DISubroutineType(types: !63)
!63 = !{!64, !12}
!64 = !DIBasicType(name: "bool", size: 8, encoding: DW_ATE_boolean)
!65 = !DILocalVariable(name: "argc", arg: 1, scope: !61, file: !3, line: 6, type: !12)
!66 = !DILocation(line: 6, column: 18, scope: !61)
!67 = !DILocation(line: 7, column: 10, scope: !61)
!68 = !DILocation(line: 7, column: 3, scope: !61)
!69 = distinct !DISubprogram(name: "__cxx_global_var_init", scope: !3, file: !3, line: 22, type: !58, scopeLine: 22, spFlags: DISPFlagLocalToUnit | DISPFlagDefinition, unit: !2, retainedNodes: !4)
!70 = !DILocation(line: 22, column: 10, scope: !69)
!71 = distinct !DISubprogram(name: "S2", linkageName: "_ZN2S2C2Ev", scope: !9, file: !3, line: 14, type: !18, scopeLine: 14, flags: DIFlagPrototyped, spFlags: DISPFlagDefinition, unit: !2, declaration: !17, retainedNodes: !4)
!72 = !DILocalVariable(name: "this", arg: 1, scope: !71, type: !73, flags: DIFlagArtificial | DIFlagObjectPointer)
!73 = !DIDerivedType(tag: DW_TAG_pointer_type, baseType: !9, size: 64)
!74 = !DILocation(line: 0, scope: !71)
!75 = !DILocation(line: 14, column: 10, scope: !71)
!76 = !DILocation(line: 15, column: 1, scope: !71)
!77 = distinct !DISubprogram(name: "__cxx_global_var_init.1", scope: !3, file: !3, line: 23, type: !58, scopeLine: 23, spFlags: DISPFlagLocalToUnit | DISPFlagDefinition, unit: !2, retainedNodes: !4)
!78 = !DILocation(line: 23, column: 10, scope: !77)
!79 = distinct !DISubprogram(name: "__cxx_global_var_init.2", scope: !3, file: !3, line: 33, type: !58, scopeLine: 33, spFlags: DISPFlagLocalToUnit | DISPFlagDefinition, unit: !2, retainedNodes: !4)
!80 = !DILocation(line: 33, column: 10, scope: !79)
!81 = distinct !DISubprogram(name: "S3", linkageName: "_ZN2S3C2Ev", scope: !33, file: !3, line: 28, type: !43, scopeLine: 28, flags: DIFlagPrototyped, spFlags: DISPFlagDefinition, unit: !2, declaration: !42, retainedNodes: !4)
!82 = !DILocalVariable(name: "this", arg: 1, scope: !81, type: !83, flags: DIFlagArtificial | DIFlagObjectPointer)
!83 = !DIDerivedType(tag: DW_TAG_pointer_type, baseType: !33, size: 64)
!84 = !DILocation(line: 0, scope: !81)
!85 = !DILocation(line: 28, column: 10, scope: !81)
!86 = !DILocation(line: 29, column: 1, scope: !81)
!87 = distinct !DISubprogram(name: "__cxx_global_var_init.3", scope: !3, file: !3, line: 34, type: !58, scopeLine: 34, spFlags: DISPFlagLocalToUnit | DISPFlagDefinition, unit: !2, retainedNodes: !4)
!88 = !DILocation(line: 34, column: 10, scope: !87)
!89 = distinct !DISubprogram(name: "__cxx_global_var_init.4", scope: !3, file: !3, line: 60, type: !58, scopeLine: 60, spFlags: DISPFlagLocalToUnit | DISPFlagDefinition, unit: !2, retainedNodes: !4)
!90 = !DILocation(line: 60, column: 4, scope: !89)
!91 = distinct !DISubprogram(name: "main", scope: !3, file: !3, line: 62, type: !92, scopeLine: 62, flags: DIFlagPrototyped, spFlags: DISPFlagDefinition, unit: !2, retainedNodes: !4)
!92 = !DISubroutineType(types: !93)
!93 = !{!12, !12, !94}
!94 = !DIDerivedType(tag: DW_TAG_pointer_type, baseType: !95, size: 64)
!95 = !DIDerivedType(tag: DW_TAG_pointer_type, baseType: !96, size: 64)
!96 = !DIBasicType(name: "char", size: 8, encoding: DW_ATE_signed_char)
!97 = !DILocalVariable(name: "argc", arg: 1, scope: !91, file: !3, line: 62, type: !12)
!98 = !DILocation(line: 62, column: 14, scope: !91)
!99 = !DILocalVariable(name: "argv", arg: 2, scope: !91, file: !3, line: 62, type: !94)
!100 = !DILocation(line: 62, column: 27, scope: !91)
!101 = !DILocalVariable(name: "d", scope: !91, file: !3, line: 63, type: !102)
!102 = !DIDerivedType(tag: DW_TAG_const_type, baseType: !12)
!103 = !DILocation(line: 63, column: 13, scope: !91)
!104 = !DILocalVariable(name: "da", scope: !91, file: !3, line: 64, type: !105)
!105 = !DICompositeType(tag: DW_TAG_array_type, baseType: !102, size: 160, elements: !28)
!106 = !DILocation(line: 64, column: 13, scope: !91)
!107 = !DILocalVariable(name: "e", scope: !91, file: !3, line: 66, type: !108)
!108 = distinct !DICompositeType(tag: DW_TAG_class_type, name: "S4", file: !3, line: 36, size: 32, flags: DIFlagTypePassByReference | DIFlagNonTrivial, elements: !109, identifier: "_ZTS2S4")
!109 = !{!110, !111, !115, !120}
!110 = !DIDerivedType(tag: DW_TAG_member, name: "a", scope: !108, file: !3, line: 37, baseType: !12, size: 32)
!111 = !DISubprogram(name: "S4", scope: !108, file: !3, line: 38, type: !112, scopeLine: 38, flags: DIFlagPrototyped, spFlags: 0)
!112 = !DISubroutineType(types: !113)
!113 = !{null, !114}
!114 = !DIDerivedType(tag: DW_TAG_pointer_type, baseType: !108, size: 64, flags: DIFlagArtificial | DIFlagObjectPointer)
!115 = !DISubprogram(name: "S4", scope: !108, file: !3, line: 39, type: !116, scopeLine: 39, flags: DIFlagPrototyped, spFlags: 0)
!116 = !DISubroutineType(types: !117)
!117 = !{null, !114, !118}
!118 = !DIDerivedType(tag: DW_TAG_reference_type, baseType: !119, size: 64)
!119 = !DIDerivedType(tag: DW_TAG_const_type, baseType: !108)
!120 = !DISubprogram(name: "S4", scope: !108, file: !3, line: 41, type: !121, scopeLine: 41, flags: DIFlagPublic | DIFlagPrototyped, spFlags: 0)
!121 = !DISubroutineType(types: !122)
!122 = !{null, !114, !12}
!123 = !DILocation(line: 66, column: 6, scope: !91)
!124 = !DILocalVariable(name: "g", scope: !91, file: !3, line: 67, type: !125)
!125 = distinct !DICompositeType(tag: DW_TAG_class_type, name: "S5", file: !3, line: 44, size: 32, flags: DIFlagTypePassByReference | DIFlagNonTrivial, elements: !126, identifier: "_ZTS2S5")
!126 = !{!127, !128, !132, !137}
!127 = !DIDerivedType(tag: DW_TAG_member, name: "a", scope: !125, file: !3, line: 45, baseType: !12, size: 32)
!128 = !DISubprogram(name: "S5", scope: !125, file: !3, line: 46, type: !129, scopeLine: 46, flags: DIFlagPrototyped, spFlags: 0)
!129 = !DISubroutineType(types: !130)
!130 = !{null, !131}
!131 = !DIDerivedType(tag: DW_TAG_pointer_type, baseType: !125, size: 64, flags: DIFlagArtificial | DIFlagObjectPointer)
!132 = !DISubprogram(name: "S5", scope: !125, file: !3, line: 48, type: !133, scopeLine: 48, flags: DIFlagPrototyped, spFlags: 0)
!133 = !DISubroutineType(types: !134)
!134 = !{null, !131, !135}
!135 = !DIDerivedType(tag: DW_TAG_reference_type, baseType: !136, size: 64)
!136 = !DIDerivedType(tag: DW_TAG_const_type, baseType: !125)
!137 = !DISubprogram(name: "S5", scope: !125, file: !3, line: 51, type: !138, scopeLine: 51, flags: DIFlagPublic | DIFlagPrototyped, spFlags: 0)
!138 = !DISubroutineType(types: !139)
!139 = !{null, !131, !12}
!140 = !DILocation(line: 67, column: 6, scope: !91)
!141 = !DILocalVariable(name: "p", scope: !91, file: !3, line: 68, type: !142)
!142 = distinct !DICompositeType(tag: DW_TAG_class_type, name: "S6", file: !3, line: 54, size: 32, flags: DIFlagTypePassByValue | DIFlagNonTrivial, elements: !143, identifier: "_ZTS2S6")
!143 = !{!144, !145}
!144 = !DIDerivedType(tag: DW_TAG_member, name: "a", scope: !142, file: !3, line: 55, baseType: !12, size: 32)
!145 = !DISubprogram(name: "S6", scope: !142, file: !3, line: 57, type: !146, scopeLine: 57, flags: DIFlagPublic | DIFlagPrototyped, spFlags: 0)
!146 = !DISubroutineType(types: !147)
!147 = !{null, !148}
!148 = !DIDerivedType(tag: DW_TAG_pointer_type, baseType: !142, size: 64, flags: DIFlagArtificial | DIFlagObjectPointer)
!149 = !DILocation(line: 68, column: 6, scope: !91)
!150 = !DILocalVariable(name: "i", scope: !91, file: !3, line: 69, type: !12)
!151 = !DILocation(line: 69, column: 7, scope: !91)
!152 = !DILocalVariable(name: "j", scope: !91, file: !3, line: 70, type: !153)
!153 = !DIDerivedType(tag: DW_TAG_reference_type, baseType: !12, size: 64)
!154 = !DILocation(line: 70, column: 8, scope: !91)
!155 = !DILocation(line: 72, column: 1, scope: !91)
!156 = !DILocation(line: 73, column: 1, scope: !91)
!157 = !DILocation(line: 74, column: 10, scope: !158)
!158 = distinct !DILexicalBlock(scope: !91, file: !3, line: 74, column: 3)
!159 = !DILocation(line: 74, column: 8, scope: !158)
!160 = !DILocation(line: 74, column: 15, scope: !161)
!161 = distinct !DILexicalBlock(scope: !158, file: !3, line: 74, column: 3)
!162 = !DILocation(line: 74, column: 19, scope: !161)
!163 = !DILocation(line: 74, column: 17, scope: !161)
!164 = !DILocation(line: 74, column: 3, scope: !158)
!165 = !DILocation(line: 74, column: 30, scope: !161)
!166 = !DILocation(line: 74, column: 25, scope: !161)
!167 = !DILocation(line: 74, column: 3, scope: !161)
!168 = distinct !{!168, !164, !169}
!169 = !DILocation(line: 74, column: 34, scope: !158)
!170 = !DILocation(line: 78, column: 1, scope: !91)
!171 = !DILocation(line: 79, column: 1, scope: !91)
!172 = !DILocation(line: 80, column: 10, scope: !173)
!173 = distinct !DILexicalBlock(scope: !91, file: !3, line: 80, column: 3)
!174 = !DILocation(line: 80, column: 8, scope: !173)
!175 = !DILocation(line: 80, column: 15, scope: !176)
!176 = distinct !DILexicalBlock(scope: !173, file: !3, line: 80, column: 3)
!177 = !DILocation(line: 80, column: 19, scope: !176)
!178 = !DILocation(line: 80, column: 17, scope: !176)
!179 = !DILocation(line: 80, column: 3, scope: !173)
!180 = !DILocation(line: 80, column: 30, scope: !176)
!181 = !DILocation(line: 80, column: 25, scope: !176)
!182 = !DILocation(line: 80, column: 3, scope: !176)
!183 = distinct !{!183, !179, !184}
!184 = !DILocation(line: 80, column: 34, scope: !173)
!185 = !DILocation(line: 84, column: 1, scope: !91)
!186 = !DILocation(line: 85, column: 1, scope: !91)
!187 = !DILocation(line: 86, column: 10, scope: !188)
!188 = distinct !DILexicalBlock(scope: !91, file: !3, line: 86, column: 3)
!189 = !DILocation(line: 86, column: 8, scope: !188)
!190 = !DILocation(line: 86, column: 15, scope: !191)
!191 = distinct !DILexicalBlock(scope: !188, file: !3, line: 86, column: 3)
!192 = !DILocation(line: 86, column: 19, scope: !191)
!193 = !DILocation(line: 86, column: 17, scope: !191)
!194 = !DILocation(line: 86, column: 3, scope: !188)
!195 = !DILocation(line: 86, column: 30, scope: !191)
!196 = !DILocation(line: 86, column: 25, scope: !191)
!197 = !DILocation(line: 86, column: 3, scope: !191)
!198 = distinct !{!198, !194, !199}
!199 = !DILocation(line: 86, column: 34, scope: !188)
!200 = !DILocation(line: 90, column: 1, scope: !91)
!201 = !DILocation(line: 91, column: 1, scope: !91)
!202 = !DILocation(line: 92, column: 10, scope: !203)
!203 = distinct !DILexicalBlock(scope: !91, file: !3, line: 92, column: 3)
!204 = !DILocation(line: 92, column: 8, scope: !203)
!205 = !DILocation(line: 92, column: 15, scope: !206)
!206 = distinct !DILexicalBlock(scope: !203, file: !3, line: 92, column: 3)
!207 = !DILocation(line: 92, column: 19, scope: !206)
!208 = !DILocation(line: 92, column: 17, scope: !206)
!209 = !DILocation(line: 92, column: 3, scope: !203)
!210 = !DILocation(line: 92, column: 30, scope: !206)
!211 = !DILocation(line: 92, column: 25, scope: !206)
!212 = !DILocation(line: 92, column: 3, scope: !206)
!213 = distinct !{!213, !209, !214}
!214 = !DILocation(line: 92, column: 34, scope: !203)
!215 = !DILocation(line: 96, column: 1, scope: !91)
!216 = !DILocation(line: 97, column: 1, scope: !91)
!217 = !DILocation(line: 98, column: 10, scope: !218)
!218 = distinct !DILexicalBlock(scope: !91, file: !3, line: 98, column: 3)
!219 = !DILocation(line: 98, column: 8, scope: !218)
!220 = !DILocation(line: 98, column: 15, scope: !221)
!221 = distinct !DILexicalBlock(scope: !218, file: !3, line: 98, column: 3)
!222 = !DILocation(line: 98, column: 19, scope: !221)
!223 = !DILocation(line: 98, column: 17, scope: !221)
!224 = !DILocation(line: 98, column: 3, scope: !218)
!225 = !DILocation(line: 98, column: 30, scope: !221)
!226 = !DILocation(line: 98, column: 25, scope: !221)
!227 = !DILocation(line: 98, column: 3, scope: !221)
!228 = distinct !{!228, !224, !229}
!229 = !DILocation(line: 98, column: 34, scope: !218)
!230 = !DILocation(line: 102, column: 1, scope: !91)
!231 = !DILocation(line: 103, column: 1, scope: !91)
!232 = !DILocation(line: 104, column: 10, scope: !233)
!233 = distinct !DILexicalBlock(scope: !91, file: !3, line: 104, column: 3)
!234 = !DILocation(line: 104, column: 8, scope: !233)
!235 = !DILocation(line: 104, column: 15, scope: !236)
!236 = distinct !DILexicalBlock(scope: !233, file: !3, line: 104, column: 3)
!237 = !DILocation(line: 104, column: 19, scope: !236)
!238 = !DILocation(line: 104, column: 17, scope: !236)
!239 = !DILocation(line: 104, column: 3, scope: !233)
!240 = !DILocation(line: 104, column: 30, scope: !236)
!241 = !DILocation(line: 104, column: 25, scope: !236)
!242 = !DILocation(line: 104, column: 3, scope: !236)
!243 = distinct !{!243, !239, !244}
!244 = !DILocation(line: 104, column: 34, scope: !233)
!245 = !DILocation(line: 108, column: 1, scope: !91)
!246 = !DILocation(line: 109, column: 1, scope: !91)
!247 = !DILocation(line: 110, column: 10, scope: !248)
!248 = distinct !DILexicalBlock(scope: !91, file: !3, line: 110, column: 3)
!249 = !DILocation(line: 110, column: 8, scope: !248)
!250 = !DILocation(line: 110, column: 15, scope: !251)
!251 = distinct !DILexicalBlock(scope: !248, file: !3, line: 110, column: 3)
!252 = !DILocation(line: 110, column: 19, scope: !251)
!253 = !DILocation(line: 110, column: 17, scope: !251)
!254 = !DILocation(line: 110, column: 3, scope: !248)
!255 = !DILocation(line: 110, column: 30, scope: !251)
!256 = !DILocation(line: 110, column: 25, scope: !251)
!257 = !DILocation(line: 110, column: 3, scope: !251)
!258 = distinct !{!258, !254, !259}
!259 = !DILocation(line: 110, column: 34, scope: !248)
!260 = !DILocation(line: 114, column: 1, scope: !91)
!261 = !DILocation(line: 115, column: 1, scope: !91)
!262 = !DILocation(line: 116, column: 10, scope: !263)
!263 = distinct !DILexicalBlock(scope: !91, file: !3, line: 116, column: 3)
!264 = !DILocation(line: 116, column: 8, scope: !263)
!265 = !DILocation(line: 116, column: 15, scope: !266)
!266 = distinct !DILexicalBlock(scope: !263, file: !3, line: 116, column: 3)
!267 = !DILocation(line: 116, column: 19, scope: !266)
!268 = !DILocation(line: 116, column: 17, scope: !266)
!269 = !DILocation(line: 116, column: 3, scope: !263)
!270 = !DILocation(line: 116, column: 30, scope: !266)
!271 = !DILocation(line: 116, column: 25, scope: !266)
!272 = !DILocation(line: 116, column: 3, scope: !266)
!273 = distinct !{!273, !269, !274}
!274 = !DILocation(line: 116, column: 34, scope: !263)
!275 = !DILocation(line: 120, column: 1, scope: !91)
!276 = !DILocation(line: 121, column: 1, scope: !91)
!277 = !DILocation(line: 122, column: 10, scope: !278)
!278 = distinct !DILexicalBlock(scope: !91, file: !3, line: 122, column: 3)
!279 = !DILocation(line: 122, column: 8, scope: !278)
!280 = !DILocation(line: 122, column: 15, scope: !281)
!281 = distinct !DILexicalBlock(scope: !278, file: !3, line: 122, column: 3)
!282 = !DILocation(line: 122, column: 19, scope: !281)
!283 = !DILocation(line: 122, column: 17, scope: !281)
!284 = !DILocation(line: 122, column: 3, scope: !278)
!285 = !DILocation(line: 122, column: 30, scope: !281)
!286 = !DILocation(line: 122, column: 25, scope: !281)
!287 = !DILocation(line: 122, column: 3, scope: !281)
!288 = distinct !{!288, !284, !289}
!289 = !DILocation(line: 122, column: 34, scope: !278)
!290 = !DILocation(line: 126, column: 1, scope: !91)
!291 = !DILocation(line: 127, column: 1, scope: !91)
!292 = !DILocation(line: 128, column: 10, scope: !293)
!293 = distinct !DILexicalBlock(scope: !91, file: !3, line: 128, column: 3)
!294 = !DILocation(line: 128, column: 8, scope: !293)
!295 = !DILocation(line: 128, column: 15, scope: !296)
!296 = distinct !DILexicalBlock(scope: !293, file: !3, line: 128, column: 3)
!297 = !DILocation(line: 128, column: 19, scope: !296)
!298 = !DILocation(line: 128, column: 17, scope: !296)
!299 = !DILocation(line: 128, column: 3, scope: !293)
!300 = !DILocation(line: 128, column: 30, scope: !296)
!301 = !DILocation(line: 128, column: 25, scope: !296)
!302 = !DILocation(line: 128, column: 3, scope: !296)
!303 = distinct !{!303, !299, !304}
!304 = !DILocation(line: 128, column: 34, scope: !293)
!305 = !DILocation(line: 132, column: 1, scope: !91)
!306 = !DILocation(line: 133, column: 1, scope: !91)
!307 = !DILocation(line: 134, column: 10, scope: !308)
!308 = distinct !DILexicalBlock(scope: !91, file: !3, line: 134, column: 3)
!309 = !DILocation(line: 134, column: 8, scope: !308)
!310 = !DILocation(line: 134, column: 15, scope: !311)
!311 = distinct !DILexicalBlock(scope: !308, file: !3, line: 134, column: 3)
!312 = !DILocation(line: 134, column: 19, scope: !311)
!313 = !DILocation(line: 134, column: 17, scope: !311)
!314 = !DILocation(line: 134, column: 3, scope: !308)
!315 = !DILocation(line: 134, column: 30, scope: !311)
!316 = !DILocation(line: 134, column: 25, scope: !311)
!317 = !DILocation(line: 134, column: 3, scope: !311)
!318 = distinct !{!318, !314, !319}
!319 = !DILocation(line: 134, column: 34, scope: !308)
!320 = !DILocation(line: 138, column: 1, scope: !91)
!321 = !DILocation(line: 139, column: 1, scope: !91)
!322 = !DILocation(line: 140, column: 10, scope: !323)
!323 = distinct !DILexicalBlock(scope: !91, file: !3, line: 140, column: 3)
!324 = !DILocation(line: 140, column: 8, scope: !323)
!325 = !DILocation(line: 140, column: 15, scope: !326)
!326 = distinct !DILexicalBlock(scope: !323, file: !3, line: 140, column: 3)
!327 = !DILocation(line: 140, column: 19, scope: !326)
!328 = !DILocation(line: 140, column: 17, scope: !326)
!329 = !DILocation(line: 140, column: 3, scope: !323)
!330 = !DILocation(line: 140, column: 30, scope: !326)
!331 = !DILocation(line: 140, column: 25, scope: !326)
!332 = !DILocation(line: 140, column: 3, scope: !326)
!333 = distinct !{!333, !329, !334}
!334 = !DILocation(line: 140, column: 34, scope: !323)
!335 = !DILocation(line: 144, column: 1, scope: !91)
!336 = !DILocation(line: 145, column: 1, scope: !91)
!337 = !DILocation(line: 146, column: 10, scope: !338)
!338 = distinct !DILexicalBlock(scope: !91, file: !3, line: 146, column: 3)
!339 = !DILocation(line: 146, column: 8, scope: !338)
!340 = !DILocation(line: 146, column: 15, scope: !341)
!341 = distinct !DILexicalBlock(scope: !338, file: !3, line: 146, column: 3)
!342 = !DILocation(line: 146, column: 19, scope: !341)
!343 = !DILocation(line: 146, column: 17, scope: !341)
!344 = !DILocation(line: 146, column: 3, scope: !338)
!345 = !DILocation(line: 146, column: 30, scope: !341)
!346 = !DILocation(line: 146, column: 25, scope: !341)
!347 = !DILocation(line: 146, column: 3, scope: !341)
!348 = distinct !{!348, !344, !349}
!349 = !DILocation(line: 146, column: 34, scope: !338)
!350 = !DILocation(line: 150, column: 1, scope: !91)
!351 = !DILocation(line: 151, column: 1, scope: !91)
!352 = !DILocation(line: 152, column: 10, scope: !353)
!353 = distinct !DILexicalBlock(scope: !91, file: !3, line: 152, column: 3)
!354 = !DILocation(line: 152, column: 8, scope: !353)
!355 = !DILocation(line: 152, column: 15, scope: !356)
!356 = distinct !DILexicalBlock(scope: !353, file: !3, line: 152, column: 3)
!357 = !DILocation(line: 152, column: 19, scope: !356)
!358 = !DILocation(line: 152, column: 17, scope: !356)
!359 = !DILocation(line: 152, column: 3, scope: !353)
!360 = !DILocation(line: 152, column: 30, scope: !356)
!361 = !DILocation(line: 152, column: 25, scope: !356)
!362 = !DILocation(line: 152, column: 3, scope: !356)
!363 = distinct !{!363, !359, !364}
!364 = !DILocation(line: 152, column: 34, scope: !353)
!365 = !DILocation(line: 156, column: 1, scope: !91)
!366 = !DILocation(line: 157, column: 1, scope: !91)
!367 = !DILocation(line: 158, column: 10, scope: !368)
!368 = distinct !DILexicalBlock(scope: !91, file: !3, line: 158, column: 3)
!369 = !DILocation(line: 158, column: 8, scope: !368)
!370 = !DILocation(line: 158, column: 15, scope: !371)
!371 = distinct !DILexicalBlock(scope: !368, file: !3, line: 158, column: 3)
!372 = !DILocation(line: 158, column: 19, scope: !371)
!373 = !DILocation(line: 158, column: 17, scope: !371)
!374 = !DILocation(line: 158, column: 3, scope: !368)
!375 = !DILocation(line: 158, column: 30, scope: !371)
!376 = !DILocation(line: 158, column: 25, scope: !371)
!377 = !DILocation(line: 158, column: 3, scope: !371)
!378 = distinct !{!378, !374, !379}
!379 = !DILocation(line: 158, column: 34, scope: !368)
!380 = !DILocation(line: 162, column: 1, scope: !91)
!381 = !DILocation(line: 163, column: 1, scope: !91)
!382 = !DILocation(line: 164, column: 10, scope: !383)
!383 = distinct !DILexicalBlock(scope: !91, file: !3, line: 164, column: 3)
!384 = !DILocation(line: 164, column: 8, scope: !383)
!385 = !DILocation(line: 164, column: 15, scope: !386)
!386 = distinct !DILexicalBlock(scope: !383, file: !3, line: 164, column: 3)
!387 = !DILocation(line: 164, column: 19, scope: !386)
!388 = !DILocation(line: 164, column: 17, scope: !386)
!389 = !DILocation(line: 164, column: 3, scope: !383)
!390 = !DILocation(line: 164, column: 30, scope: !386)
!391 = !DILocation(line: 164, column: 25, scope: !386)
!392 = !DILocation(line: 164, column: 3, scope: !386)
!393 = distinct !{!393, !389, !394}
!394 = !DILocation(line: 164, column: 34, scope: !383)
!395 = !DILocation(line: 168, column: 1, scope: !91)
!396 = !DILocation(line: 169, column: 1, scope: !91)
!397 = !DILocation(line: 170, column: 10, scope: !398)
!398 = distinct !DILexicalBlock(scope: !91, file: !3, line: 170, column: 3)
!399 = !DILocation(line: 170, column: 8, scope: !398)
!400 = !DILocation(line: 170, column: 15, scope: !401)
!401 = distinct !DILexicalBlock(scope: !398, file: !3, line: 170, column: 3)
!402 = !DILocation(line: 170, column: 19, scope: !401)
!403 = !DILocation(line: 170, column: 17, scope: !401)
!404 = !DILocation(line: 170, column: 3, scope: !398)
!405 = !DILocation(line: 170, column: 30, scope: !401)
!406 = !DILocation(line: 170, column: 25, scope: !401)
!407 = !DILocation(line: 170, column: 3, scope: !401)
!408 = distinct !{!408, !404, !409}
!409 = !DILocation(line: 170, column: 34, scope: !398)
!410 = !DILocation(line: 174, column: 1, scope: !91)
!411 = !DILocation(line: 175, column: 1, scope: !91)
!412 = !DILocation(line: 176, column: 8, scope: !413)
!413 = distinct !DILexicalBlock(scope: !91, file: !3, line: 176, column: 3)
!414 = !DILocation(line: 176, column: 10, scope: !413)
!415 = !DILocation(line: 176, column: 15, scope: !416)
!416 = distinct !DILexicalBlock(scope: !413, file: !3, line: 176, column: 3)
!417 = !DILocation(line: 176, column: 19, scope: !416)
!418 = !DILocation(line: 176, column: 17, scope: !416)
!419 = !DILocation(line: 176, column: 3, scope: !413)
!420 = !DILocation(line: 176, column: 30, scope: !416)
!421 = !DILocation(line: 176, column: 27, scope: !416)
!422 = !DILocation(line: 176, column: 25, scope: !416)
!423 = !DILocation(line: 176, column: 3, scope: !416)
!424 = distinct !{!424, !419, !425}
!425 = !DILocation(line: 176, column: 34, scope: !413)
!426 = !DILocation(line: 180, column: 1, scope: !91)
!427 = !DILocation(line: 181, column: 1, scope: !91)
!428 = !DILocation(line: 182, column: 10, scope: !429)
!429 = distinct !DILexicalBlock(scope: !91, file: !3, line: 182, column: 3)
!430 = !DILocation(line: 182, column: 8, scope: !429)
!431 = !DILocation(line: 182, column: 15, scope: !432)
!432 = distinct !DILexicalBlock(scope: !429, file: !3, line: 182, column: 3)
!433 = !DILocation(line: 182, column: 19, scope: !432)
!434 = !DILocation(line: 182, column: 17, scope: !432)
!435 = !DILocation(line: 182, column: 3, scope: !429)
!436 = !DILocation(line: 182, column: 30, scope: !432)
!437 = !DILocation(line: 182, column: 25, scope: !432)
!438 = !DILocation(line: 182, column: 3, scope: !432)
!439 = distinct !{!439, !435, !440}
!440 = !DILocation(line: 182, column: 34, scope: !429)
!441 = !DILocation(line: 186, column: 1, scope: !91)
!442 = !DILocation(line: 187, column: 1, scope: !91)
!443 = !DILocation(line: 188, column: 10, scope: !444)
!444 = distinct !DILexicalBlock(scope: !91, file: !3, line: 188, column: 3)
!445 = !DILocation(line: 188, column: 8, scope: !444)
!446 = !DILocation(line: 188, column: 15, scope: !447)
!447 = distinct !DILexicalBlock(scope: !444, file: !3, line: 188, column: 3)
!448 = !DILocation(line: 188, column: 19, scope: !447)
!449 = !DILocation(line: 188, column: 17, scope: !447)
!450 = !DILocation(line: 188, column: 3, scope: !444)
!451 = !DILocation(line: 188, column: 30, scope: !447)
!452 = !DILocation(line: 188, column: 25, scope: !447)
!453 = !DILocation(line: 188, column: 3, scope: !447)
!454 = distinct !{!454, !450, !455}
!455 = !DILocation(line: 188, column: 34, scope: !444)
!456 = !DILocation(line: 192, column: 1, scope: !91)
!457 = !DILocation(line: 193, column: 1, scope: !91)
!458 = !DILocation(line: 194, column: 10, scope: !459)
!459 = distinct !DILexicalBlock(scope: !91, file: !3, line: 194, column: 3)
!460 = !DILocation(line: 194, column: 8, scope: !459)
!461 = !DILocation(line: 194, column: 15, scope: !462)
!462 = distinct !DILexicalBlock(scope: !459, file: !3, line: 194, column: 3)
!463 = !DILocation(line: 194, column: 19, scope: !462)
!464 = !DILocation(line: 194, column: 17, scope: !462)
!465 = !DILocation(line: 194, column: 3, scope: !459)
!466 = !DILocation(line: 194, column: 30, scope: !462)
!467 = !DILocation(line: 194, column: 25, scope: !462)
!468 = !DILocation(line: 194, column: 3, scope: !462)
!469 = distinct !{!469, !465, !470}
!470 = !DILocation(line: 194, column: 34, scope: !459)
!471 = !DILocation(line: 197, column: 3, scope: !91)
!472 = distinct !DISubprogram(name: "S4", linkageName: "_ZN2S4C2Ei", scope: !108, file: !3, line: 41, type: !121, scopeLine: 41, flags: DIFlagPrototyped, spFlags: DISPFlagDefinition, unit: !2, declaration: !120, retainedNodes: !4)
!473 = !DILocalVariable(name: "this", arg: 1, scope: !472, type: !474, flags: DIFlagArtificial | DIFlagObjectPointer)
!474 = !DIDerivedType(tag: DW_TAG_pointer_type, baseType: !108, size: 64)
!475 = !DILocation(line: 0, scope: !472)
!476 = !DILocalVariable(name: "v", arg: 2, scope: !472, file: !3, line: 41, type: !12)
!477 = !DILocation(line: 41, column: 10, scope: !472)
!478 = !DILocation(line: 41, column: 13, scope: !472)
!479 = !DILocation(line: 41, column: 15, scope: !472)
!480 = !DILocation(line: 42, column: 1, scope: !472)
!481 = distinct !DISubprogram(name: "S5", linkageName: "_ZN2S5C2Ei", scope: !125, file: !3, line: 51, type: !138, scopeLine: 51, flags: DIFlagPrototyped, spFlags: DISPFlagDefinition, unit: !2, declaration: !137, retainedNodes: !4)
!482 = !DILocalVariable(name: "this", arg: 1, scope: !481, type: !483, flags: DIFlagArtificial | DIFlagObjectPointer)
!483 = !DIDerivedType(tag: DW_TAG_pointer_type, baseType: !125, size: 64)
!484 = !DILocation(line: 0, scope: !481)
!485 = !DILocalVariable(name: "v", arg: 2, scope: !481, file: !3, line: 51, type: !12)
!486 = !DILocation(line: 51, column: 10, scope: !481)
!487 = !DILocation(line: 51, column: 13, scope: !481)
!488 = !DILocation(line: 51, column: 15, scope: !481)
!489 = !DILocation(line: 52, column: 1, scope: !481)
!490 = distinct !DISubprogram(name: "S6", linkageName: "_ZN2S6C2Ev", scope: !142, file: !3, line: 57, type: !146, scopeLine: 57, flags: DIFlagPrototyped, spFlags: DISPFlagDefinition, unit: !2, declaration: !145, retainedNodes: !4)
!491 = !DILocalVariable(name: "this", arg: 1, scope: !490, type: !492, flags: DIFlagArtificial | DIFlagObjectPointer)
!492 = !DIDerivedType(tag: DW_TAG_pointer_type, baseType: !142, size: 64)
!493 = !DILocation(line: 0, scope: !490)
!494 = !DILocation(line: 57, column: 10, scope: !490)
!495 = !DILocation(line: 58, column: 1, scope: !490)
!496 = distinct !DISubprogram(linkageName: "_GLOBAL__sub_I_teams_distribute_parallel_for_firstprivate_messages.cpp", scope: !3, file: !3, type: !497, flags: DIFlagArtificial, spFlags: DISPFlagLocalToUnit | DISPFlagDefinition, unit: !2, retainedNodes: !4)
!497 = !DISubroutineType(types: !4)
!498 = !DILocation(line: 0, scope: !496)
